
tests.o:     file format elf32-littleriscv


Disassembly of section .text:

00000000 <beq_error-0xa08>:
       0:	01400593          	li	a1,20
       4:	00600613          	li	a2,6
       8:	00200693          	li	a3,2
       c:	02c5e733          	rem	a4,a1,a2
      10:	00e6c533          	xor	a0,a3,a4
      14:	01400593          	li	a1,20
      18:	ffa00613          	li	a2,-6
      1c:	00200693          	li	a3,2
      20:	02c5e733          	rem	a4,a1,a2
      24:	00e6c533          	xor	a0,a3,a4
      28:	fec00593          	li	a1,-20
      2c:	00600613          	li	a2,6
      30:	ffe00693          	li	a3,-2
      34:	02c5e733          	rem	a4,a1,a2
      38:	00e6c533          	xor	a0,a3,a4
      3c:	fec00593          	li	a1,-20
      40:	ffa00613          	li	a2,-6
      44:	ffe00693          	li	a3,-2
      48:	02c5e733          	rem	a4,a1,a2
      4c:	00e6c533          	xor	a0,a3,a4
      50:	01400593          	li	a1,20
      54:	00100613          	li	a2,1
      58:	00000693          	li	a3,0
      5c:	02c5e733          	rem	a4,a1,a2
      60:	00e6c533          	xor	a0,a3,a4
      64:	01400593          	li	a1,20
      68:	01400613          	li	a2,20
      6c:	00000693          	li	a3,0
      70:	02c5e733          	rem	a4,a1,a2
      74:	00e6c533          	xor	a0,a3,a4
      78:	01400593          	li	a1,20
      7c:	00400613          	li	a2,4
      80:	00000693          	li	a3,0
      84:	02c5e733          	rem	a4,a1,a2
      88:	00e6c533          	xor	a0,a3,a4
      8c:	01400593          	li	a1,20
      90:	01500613          	li	a2,21
      94:	01400693          	li	a3,20
      98:	02c5e733          	rem	a4,a1,a2
      9c:	00e6c533          	xor	a0,a3,a4
      a0:	0000f5b7          	lui	a1,0xf
      a4:	5ff58593          	addi	a1,a1,1535 # f5ff <jal_label2+0xe957>
      a8:	05300613          	li	a2,83
      ac:	03d00693          	li	a3,61
      b0:	02c5e733          	rem	a4,a1,a2
      b4:	00e6c533          	xor	a0,a3,a4
      b8:	00100593          	li	a1,1
      bc:	00000613          	li	a2,0
      c0:	00100693          	li	a3,1
      c4:	02c5e733          	rem	a4,a1,a2
      c8:	00e6c533          	xor	a0,a3,a4
      cc:	02200593          	li	a1,34
      d0:	00000613          	li	a2,0
      d4:	02200693          	li	a3,34
      d8:	02c5e733          	rem	a4,a1,a2
      dc:	00e6c533          	xor	a0,a3,a4
      e0:	800005b7          	lui	a1,0x80000
      e4:	00200613          	li	a2,2
      e8:	00000693          	li	a3,0
      ec:	02c5e733          	rem	a4,a1,a2
      f0:	00e6c533          	xor	a0,a3,a4
      f4:	800005b7          	lui	a1,0x80000
      f8:	40000637          	lui	a2,0x40000
      fc:	00000693          	li	a3,0
     100:	02c5e733          	rem	a4,a1,a2
     104:	00e6c533          	xor	a0,a3,a4
     108:	800005b7          	lui	a1,0x80000
     10c:	fff00613          	li	a2,-1
     110:	00000693          	li	a3,0
     114:	02c5e733          	rem	a4,a1,a2
     118:	00e6c533          	xor	a0,a3,a4
     11c:	00000593          	li	a1,0
     120:	00000613          	li	a2,0
     124:	00000693          	li	a3,0
     128:	02c5a733          	mulhsu	a4,a1,a2
     12c:	00e6c533          	xor	a0,a3,a4
     130:	00100593          	li	a1,1
     134:	00100613          	li	a2,1
     138:	00000693          	li	a3,0
     13c:	02c5a733          	mulhsu	a4,a1,a2
     140:	00e6c533          	xor	a0,a3,a4
     144:	00300593          	li	a1,3
     148:	00700613          	li	a2,7
     14c:	00000693          	li	a3,0
     150:	02c5a733          	mulhsu	a4,a1,a2
     154:	00e6c533          	xor	a0,a3,a4
     158:	00000593          	li	a1,0
     15c:	ffff8637          	lui	a2,0xffff8
     160:	00000693          	li	a3,0
     164:	02c5a733          	mulhsu	a4,a1,a2
     168:	00e6c533          	xor	a0,a3,a4
     16c:	800005b7          	lui	a1,0x80000
     170:	00000613          	li	a2,0
     174:	00000693          	li	a3,0
     178:	02c5a733          	mulhsu	a4,a1,a2
     17c:	00e6c533          	xor	a0,a3,a4
     180:	800005b7          	lui	a1,0x80000
     184:	ffff8637          	lui	a2,0xffff8
     188:	800046b7          	lui	a3,0x80004
     18c:	02c5a733          	mulhsu	a4,a1,a2
     190:	00e6c533          	xor	a0,a3,a4
     194:	aaaab5b7          	lui	a1,0xaaaab
     198:	aab58593          	addi	a1,a1,-1365 # aaaaaaab <jal_label2+0xaaaa9e03>
     19c:	00030637          	lui	a2,0x30
     1a0:	e7d60613          	addi	a2,a2,-387 # 2fe7d <jal_label2+0x2f1d5>
     1a4:	ffff06b7          	lui	a3,0xffff0
     1a8:	08168693          	addi	a3,a3,129 # ffff0081 <jal_label2+0xfffef3d9>
     1ac:	02c5a733          	mulhsu	a4,a1,a2
     1b0:	00e6c533          	xor	a0,a3,a4
     1b4:	000305b7          	lui	a1,0x30
     1b8:	e7d58593          	addi	a1,a1,-387 # 2fe7d <jal_label2+0x2f1d5>
     1bc:	aaaab637          	lui	a2,0xaaaab
     1c0:	aab60613          	addi	a2,a2,-1365 # aaaaaaab <jal_label2+0xaaaa9e03>
     1c4:	000206b7          	lui	a3,0x20
     1c8:	efe68693          	addi	a3,a3,-258 # 1fefe <jal_label2+0x1f256>
     1cc:	02c5a733          	mulhsu	a4,a1,a2
     1d0:	00e6c533          	xor	a0,a3,a4
     1d4:	ff0005b7          	lui	a1,0xff000
     1d8:	ff000637          	lui	a2,0xff000
     1dc:	ff0106b7          	lui	a3,0xff010
     1e0:	02c5a733          	mulhsu	a4,a1,a2
     1e4:	00e6c533          	xor	a0,a3,a4
     1e8:	fff00593          	li	a1,-1
     1ec:	fff00613          	li	a2,-1
     1f0:	fff00693          	li	a3,-1
     1f4:	02c5a733          	mulhsu	a4,a1,a2
     1f8:	00e6c533          	xor	a0,a3,a4
     1fc:	fff00593          	li	a1,-1
     200:	00100613          	li	a2,1
     204:	fff00693          	li	a3,-1
     208:	02c5a733          	mulhsu	a4,a1,a2
     20c:	00e6c533          	xor	a0,a3,a4
     210:	00100593          	li	a1,1
     214:	fff00613          	li	a2,-1
     218:	00000693          	li	a3,0
     21c:	02c5a733          	mulhsu	a4,a1,a2
     220:	00e6c533          	xor	a0,a3,a4
     224:	00000593          	li	a1,0
     228:	00000613          	li	a2,0
     22c:	00000693          	li	a3,0
     230:	02c5b733          	mulhu	a4,a1,a2
     234:	00e6c533          	xor	a0,a3,a4
     238:	00100593          	li	a1,1
     23c:	00100613          	li	a2,1
     240:	00000693          	li	a3,0
     244:	02c5b733          	mulhu	a4,a1,a2
     248:	00e6c533          	xor	a0,a3,a4
     24c:	00300593          	li	a1,3
     250:	00700613          	li	a2,7
     254:	00000693          	li	a3,0
     258:	02c5b733          	mulhu	a4,a1,a2
     25c:	00e6c533          	xor	a0,a3,a4
     260:	00000593          	li	a1,0
     264:	ffff8637          	lui	a2,0xffff8
     268:	00000693          	li	a3,0
     26c:	02c5b733          	mulhu	a4,a1,a2
     270:	00e6c533          	xor	a0,a3,a4
     274:	800005b7          	lui	a1,0x80000
     278:	00000613          	li	a2,0
     27c:	00000693          	li	a3,0
     280:	02c5b733          	mulhu	a4,a1,a2
     284:	00e6c533          	xor	a0,a3,a4
     288:	800005b7          	lui	a1,0x80000
     28c:	ffff8637          	lui	a2,0xffff8
     290:	7fffc6b7          	lui	a3,0x7fffc
     294:	02c5b733          	mulhu	a4,a1,a2
     298:	00e6c533          	xor	a0,a3,a4
     29c:	aaaab5b7          	lui	a1,0xaaaab
     2a0:	aab58593          	addi	a1,a1,-1365 # aaaaaaab <jal_label2+0xaaaa9e03>
     2a4:	00030637          	lui	a2,0x30
     2a8:	e7d60613          	addi	a2,a2,-387 # 2fe7d <jal_label2+0x2f1d5>
     2ac:	000206b7          	lui	a3,0x20
     2b0:	efe68693          	addi	a3,a3,-258 # 1fefe <jal_label2+0x1f256>
     2b4:	02c5b733          	mulhu	a4,a1,a2
     2b8:	00e6c533          	xor	a0,a3,a4
     2bc:	000305b7          	lui	a1,0x30
     2c0:	e7d58593          	addi	a1,a1,-387 # 2fe7d <jal_label2+0x2f1d5>
     2c4:	aaaab637          	lui	a2,0xaaaab
     2c8:	aab60613          	addi	a2,a2,-1365 # aaaaaaab <jal_label2+0xaaaa9e03>
     2cc:	000206b7          	lui	a3,0x20
     2d0:	efe68693          	addi	a3,a3,-258 # 1fefe <jal_label2+0x1f256>
     2d4:	02c5b733          	mulhu	a4,a1,a2
     2d8:	00e6c533          	xor	a0,a3,a4
     2dc:	ff0005b7          	lui	a1,0xff000
     2e0:	ff000637          	lui	a2,0xff000
     2e4:	fe0106b7          	lui	a3,0xfe010
     2e8:	02c5b733          	mulhu	a4,a1,a2
     2ec:	00e6c533          	xor	a0,a3,a4
     2f0:	fff00593          	li	a1,-1
     2f4:	fff00613          	li	a2,-1
     2f8:	ffe00693          	li	a3,-2
     2fc:	02c5b733          	mulhu	a4,a1,a2
     300:	00e6c533          	xor	a0,a3,a4
     304:	fff00593          	li	a1,-1
     308:	00100613          	li	a2,1
     30c:	00000693          	li	a3,0
     310:	02c5b733          	mulhu	a4,a1,a2
     314:	00e6c533          	xor	a0,a3,a4
     318:	00100593          	li	a1,1
     31c:	fff00613          	li	a2,-1
     320:	00000693          	li	a3,0
     324:	02c5b733          	mulhu	a4,a1,a2
     328:	00e6c533          	xor	a0,a3,a4
     32c:	00000593          	li	a1,0
     330:	00000613          	li	a2,0
     334:	00000693          	li	a3,0
     338:	02c59733          	mulh	a4,a1,a2
     33c:	00e6c533          	xor	a0,a3,a4
     340:	00100593          	li	a1,1
     344:	00100613          	li	a2,1
     348:	00000693          	li	a3,0
     34c:	02c59733          	mulh	a4,a1,a2
     350:	00e6c533          	xor	a0,a3,a4
     354:	00300593          	li	a1,3
     358:	00700613          	li	a2,7
     35c:	00000693          	li	a3,0
     360:	02c59733          	mulh	a4,a1,a2
     364:	00e6c533          	xor	a0,a3,a4
     368:	00000593          	li	a1,0
     36c:	ffff8637          	lui	a2,0xffff8
     370:	00000693          	li	a3,0
     374:	02c59733          	mulh	a4,a1,a2
     378:	00e6c533          	xor	a0,a3,a4
     37c:	800005b7          	lui	a1,0x80000
     380:	00000613          	li	a2,0
     384:	00000693          	li	a3,0
     388:	02c59733          	mulh	a4,a1,a2
     38c:	00e6c533          	xor	a0,a3,a4
     390:	400005b7          	lui	a1,0x40000
     394:	00400613          	li	a2,4
     398:	00100693          	li	a3,1
     39c:	02c59733          	mulh	a4,a1,a2
     3a0:	00e6c533          	xor	a0,a3,a4
     3a4:	aaaab5b7          	lui	a1,0xaaaab
     3a8:	aab58593          	addi	a1,a1,-1365 # aaaaaaab <jal_label2+0xaaaa9e03>
     3ac:	00030637          	lui	a2,0x30
     3b0:	e7d60613          	addi	a2,a2,-387 # 2fe7d <jal_label2+0x2f1d5>
     3b4:	ffff06b7          	lui	a3,0xffff0
     3b8:	08168693          	addi	a3,a3,129 # ffff0081 <jal_label2+0xfffef3d9>
     3bc:	02c59733          	mulh	a4,a1,a2
     3c0:	00e6c533          	xor	a0,a3,a4
     3c4:	000305b7          	lui	a1,0x30
     3c8:	e7d58593          	addi	a1,a1,-387 # 2fe7d <jal_label2+0x2f1d5>
     3cc:	aaaab637          	lui	a2,0xaaaab
     3d0:	aab60613          	addi	a2,a2,-1365 # aaaaaaab <jal_label2+0xaaaa9e03>
     3d4:	ffff06b7          	lui	a3,0xffff0
     3d8:	08168693          	addi	a3,a3,129 # ffff0081 <jal_label2+0xfffef3d9>
     3dc:	02c59733          	mulh	a4,a1,a2
     3e0:	00e6c533          	xor	a0,a3,a4
     3e4:	ff0005b7          	lui	a1,0xff000
     3e8:	ff000637          	lui	a2,0xff000
     3ec:	000106b7          	lui	a3,0x10
     3f0:	02c59733          	mulh	a4,a1,a2
     3f4:	00e6c533          	xor	a0,a3,a4
     3f8:	fff00593          	li	a1,-1
     3fc:	fff00613          	li	a2,-1
     400:	00000693          	li	a3,0
     404:	02c59733          	mulh	a4,a1,a2
     408:	00e6c533          	xor	a0,a3,a4
     40c:	fff00593          	li	a1,-1
     410:	00100613          	li	a2,1
     414:	fff00693          	li	a3,-1
     418:	02c59733          	mulh	a4,a1,a2
     41c:	00e6c533          	xor	a0,a3,a4
     420:	00100593          	li	a1,1
     424:	fff00613          	li	a2,-1
     428:	fff00693          	li	a3,-1
     42c:	02c59733          	mulh	a4,a1,a2
     430:	00e6c533          	xor	a0,a3,a4
     434:	01400593          	li	a1,20
     438:	00600613          	li	a2,6
     43c:	00200693          	li	a3,2
     440:	02c5f733          	remu	a4,a1,a2
     444:	00e6c533          	xor	a0,a3,a4
     448:	01400593          	li	a1,20
     44c:	ffa00613          	li	a2,-6
     450:	01400693          	li	a3,20
     454:	02c5f733          	remu	a4,a1,a2
     458:	00e6c533          	xor	a0,a3,a4
     45c:	fec00593          	li	a1,-20
     460:	00600613          	li	a2,6
     464:	00200693          	li	a3,2
     468:	02c5f733          	remu	a4,a1,a2
     46c:	00e6c533          	xor	a0,a3,a4
     470:	fec00593          	li	a1,-20
     474:	ffa00613          	li	a2,-6
     478:	fec00693          	li	a3,-20
     47c:	02c5f733          	remu	a4,a1,a2
     480:	00e6c533          	xor	a0,a3,a4
     484:	01400593          	li	a1,20
     488:	00100613          	li	a2,1
     48c:	00000693          	li	a3,0
     490:	02c5f733          	remu	a4,a1,a2
     494:	00e6c533          	xor	a0,a3,a4
     498:	01400593          	li	a1,20
     49c:	01400613          	li	a2,20
     4a0:	00000693          	li	a3,0
     4a4:	02c5f733          	remu	a4,a1,a2
     4a8:	00e6c533          	xor	a0,a3,a4
     4ac:	01400593          	li	a1,20
     4b0:	00400613          	li	a2,4
     4b4:	00000693          	li	a3,0
     4b8:	02c5f733          	remu	a4,a1,a2
     4bc:	00e6c533          	xor	a0,a3,a4
     4c0:	01400593          	li	a1,20
     4c4:	01500613          	li	a2,21
     4c8:	01400693          	li	a3,20
     4cc:	02c5f733          	remu	a4,a1,a2
     4d0:	00e6c533          	xor	a0,a3,a4
     4d4:	0000f5b7          	lui	a1,0xf
     4d8:	5ff58593          	addi	a1,a1,1535 # f5ff <jal_label2+0xe957>
     4dc:	05300613          	li	a2,83
     4e0:	03d00693          	li	a3,61
     4e4:	02c5f733          	remu	a4,a1,a2
     4e8:	00e6c533          	xor	a0,a3,a4
     4ec:	00100593          	li	a1,1
     4f0:	00000613          	li	a2,0
     4f4:	00100693          	li	a3,1
     4f8:	02c5f733          	remu	a4,a1,a2
     4fc:	00e6c533          	xor	a0,a3,a4
     500:	02200593          	li	a1,34
     504:	00000613          	li	a2,0
     508:	02200693          	li	a3,34
     50c:	02c5f733          	remu	a4,a1,a2
     510:	00e6c533          	xor	a0,a3,a4
     514:	800005b7          	lui	a1,0x80000
     518:	00200613          	li	a2,2
     51c:	00000693          	li	a3,0
     520:	02c5f733          	remu	a4,a1,a2
     524:	00e6c533          	xor	a0,a3,a4
     528:	800005b7          	lui	a1,0x80000
     52c:	40000637          	lui	a2,0x40000
     530:	00000693          	li	a3,0
     534:	02c5f733          	remu	a4,a1,a2
     538:	00e6c533          	xor	a0,a3,a4
     53c:	800005b7          	lui	a1,0x80000
     540:	fff00613          	li	a2,-1
     544:	800006b7          	lui	a3,0x80000
     548:	02c5f733          	remu	a4,a1,a2
     54c:	00e6c533          	xor	a0,a3,a4
     550:	01400593          	li	a1,20
     554:	00600613          	li	a2,6
     558:	00300693          	li	a3,3
     55c:	02c5c733          	div	a4,a1,a2
     560:	00e6c533          	xor	a0,a3,a4
     564:	01400593          	li	a1,20
     568:	ffa00613          	li	a2,-6
     56c:	ffd00693          	li	a3,-3
     570:	02c5c733          	div	a4,a1,a2
     574:	00e6c533          	xor	a0,a3,a4
     578:	fec00593          	li	a1,-20
     57c:	00600613          	li	a2,6
     580:	ffd00693          	li	a3,-3
     584:	02c5c733          	div	a4,a1,a2
     588:	00e6c533          	xor	a0,a3,a4
     58c:	fec00593          	li	a1,-20
     590:	ffa00613          	li	a2,-6
     594:	00300693          	li	a3,3
     598:	02c5c733          	div	a4,a1,a2
     59c:	00e6c533          	xor	a0,a3,a4
     5a0:	01400593          	li	a1,20
     5a4:	00100613          	li	a2,1
     5a8:	01400693          	li	a3,20
     5ac:	02c5c733          	div	a4,a1,a2
     5b0:	00e6c533          	xor	a0,a3,a4
     5b4:	01400593          	li	a1,20
     5b8:	01400613          	li	a2,20
     5bc:	00100693          	li	a3,1
     5c0:	02c5c733          	div	a4,a1,a2
     5c4:	00e6c533          	xor	a0,a3,a4
     5c8:	01400593          	li	a1,20
     5cc:	00400613          	li	a2,4
     5d0:	00500693          	li	a3,5
     5d4:	02c5c733          	div	a4,a1,a2
     5d8:	00e6c533          	xor	a0,a3,a4
     5dc:	01400593          	li	a1,20
     5e0:	01500613          	li	a2,21
     5e4:	00000693          	li	a3,0
     5e8:	02c5c733          	div	a4,a1,a2
     5ec:	00e6c533          	xor	a0,a3,a4
     5f0:	0000f5b7          	lui	a1,0xf
     5f4:	5ff58593          	addi	a1,a1,1535 # f5ff <jal_label2+0xe957>
     5f8:	05300613          	li	a2,83
     5fc:	2f600693          	li	a3,758
     600:	02c5c733          	div	a4,a1,a2
     604:	00e6c533          	xor	a0,a3,a4
     608:	00100593          	li	a1,1
     60c:	00000613          	li	a2,0
     610:	fff00693          	li	a3,-1
     614:	02c5c733          	div	a4,a1,a2
     618:	00e6c533          	xor	a0,a3,a4
     61c:	02200593          	li	a1,34
     620:	00000613          	li	a2,0
     624:	fff00693          	li	a3,-1
     628:	02c5c733          	div	a4,a1,a2
     62c:	00e6c533          	xor	a0,a3,a4
     630:	800005b7          	lui	a1,0x80000
     634:	00200613          	li	a2,2
     638:	c00006b7          	lui	a3,0xc0000
     63c:	02c5c733          	div	a4,a1,a2
     640:	00e6c533          	xor	a0,a3,a4
     644:	800005b7          	lui	a1,0x80000
     648:	40000637          	lui	a2,0x40000
     64c:	ffe00693          	li	a3,-2
     650:	02c5c733          	div	a4,a1,a2
     654:	00e6c533          	xor	a0,a3,a4
     658:	800005b7          	lui	a1,0x80000
     65c:	fff00613          	li	a2,-1
     660:	800006b7          	lui	a3,0x80000
     664:	02c5c733          	div	a4,a1,a2
     668:	00e6c533          	xor	a0,a3,a4
     66c:	000085b7          	lui	a1,0x8
     670:	e0058593          	addi	a1,a1,-512 # 7e00 <jal_label2+0x7158>
     674:	b6db7637          	lui	a2,0xb6db7
     678:	db760613          	addi	a2,a2,-585 # b6db6db7 <jal_label2+0xb6db610f>
     67c:	000016b7          	lui	a3,0x1
     680:	20068693          	addi	a3,a3,512 # 1200 <jal_label2+0x558>
     684:	02c58733          	mul	a4,a1,a2
     688:	00e6c533          	xor	a0,a3,a4
     68c:	000085b7          	lui	a1,0x8
     690:	fc058593          	addi	a1,a1,-64 # 7fc0 <jal_label2+0x7318>
     694:	b6db7637          	lui	a2,0xb6db7
     698:	db760613          	addi	a2,a2,-585 # b6db6db7 <jal_label2+0xb6db610f>
     69c:	000016b7          	lui	a3,0x1
     6a0:	24068693          	addi	a3,a3,576 # 1240 <jal_label2+0x598>
     6a4:	02c58733          	mul	a4,a1,a2
     6a8:	00e6c533          	xor	a0,a3,a4
     6ac:	00000593          	li	a1,0
     6b0:	00000613          	li	a2,0
     6b4:	00000693          	li	a3,0
     6b8:	02c58733          	mul	a4,a1,a2
     6bc:	00e6c533          	xor	a0,a3,a4
     6c0:	00100593          	li	a1,1
     6c4:	00100613          	li	a2,1
     6c8:	00100693          	li	a3,1
     6cc:	02c58733          	mul	a4,a1,a2
     6d0:	00e6c533          	xor	a0,a3,a4
     6d4:	00300593          	li	a1,3
     6d8:	00700613          	li	a2,7
     6dc:	01500693          	li	a3,21
     6e0:	02c58733          	mul	a4,a1,a2
     6e4:	00e6c533          	xor	a0,a3,a4
     6e8:	00000593          	li	a1,0
     6ec:	ffff8637          	lui	a2,0xffff8
     6f0:	00000693          	li	a3,0
     6f4:	02c58733          	mul	a4,a1,a2
     6f8:	00e6c533          	xor	a0,a3,a4
     6fc:	800005b7          	lui	a1,0x80000
     700:	00000613          	li	a2,0
     704:	00000693          	li	a3,0
     708:	02c58733          	mul	a4,a1,a2
     70c:	00e6c533          	xor	a0,a3,a4
     710:	800005b7          	lui	a1,0x80000
     714:	ffff8637          	lui	a2,0xffff8
     718:	00000693          	li	a3,0
     71c:	02c58733          	mul	a4,a1,a2
     720:	00e6c533          	xor	a0,a3,a4
     724:	aaaab5b7          	lui	a1,0xaaaab
     728:	aab58593          	addi	a1,a1,-1365 # aaaaaaab <jal_label2+0xaaaa9e03>
     72c:	00030637          	lui	a2,0x30
     730:	e7d60613          	addi	a2,a2,-387 # 2fe7d <jal_label2+0x2f1d5>
     734:	000106b7          	lui	a3,0x10
     738:	f7f68693          	addi	a3,a3,-129 # ff7f <jal_label2+0xf2d7>
     73c:	02c58733          	mul	a4,a1,a2
     740:	00e6c533          	xor	a0,a3,a4
     744:	000305b7          	lui	a1,0x30
     748:	e7d58593          	addi	a1,a1,-387 # 2fe7d <jal_label2+0x2f1d5>
     74c:	aaaab637          	lui	a2,0xaaaab
     750:	aab60613          	addi	a2,a2,-1365 # aaaaaaab <jal_label2+0xaaaa9e03>
     754:	000106b7          	lui	a3,0x10
     758:	f7f68693          	addi	a3,a3,-129 # ff7f <jal_label2+0xf2d7>
     75c:	02c58733          	mul	a4,a1,a2
     760:	00e6c533          	xor	a0,a3,a4
     764:	ff0005b7          	lui	a1,0xff000
     768:	ff000637          	lui	a2,0xff000
     76c:	00000693          	li	a3,0
     770:	02c58733          	mul	a4,a1,a2
     774:	00e6c533          	xor	a0,a3,a4
     778:	fff00593          	li	a1,-1
     77c:	fff00613          	li	a2,-1
     780:	00100693          	li	a3,1
     784:	02c58733          	mul	a4,a1,a2
     788:	00e6c533          	xor	a0,a3,a4
     78c:	fff00593          	li	a1,-1
     790:	00100613          	li	a2,1
     794:	fff00693          	li	a3,-1
     798:	02c58733          	mul	a4,a1,a2
     79c:	00e6c533          	xor	a0,a3,a4
     7a0:	00100593          	li	a1,1
     7a4:	fff00613          	li	a2,-1
     7a8:	fff00693          	li	a3,-1
     7ac:	02c58733          	mul	a4,a1,a2
     7b0:	00e6c533          	xor	a0,a3,a4
     7b4:	01400593          	li	a1,20
     7b8:	00600613          	li	a2,6
     7bc:	00300693          	li	a3,3
     7c0:	02c5d733          	divu	a4,a1,a2
     7c4:	00e6c533          	xor	a0,a3,a4
     7c8:	01400593          	li	a1,20
     7cc:	ffa00613          	li	a2,-6
     7d0:	00000693          	li	a3,0
     7d4:	02c5d733          	divu	a4,a1,a2
     7d8:	00e6c533          	xor	a0,a3,a4
     7dc:	fec00593          	li	a1,-20
     7e0:	00600613          	li	a2,6
     7e4:	2aaab6b7          	lui	a3,0x2aaab
     7e8:	aa768693          	addi	a3,a3,-1369 # 2aaaaaa7 <jal_label2+0x2aaa9dff>
     7ec:	02c5d733          	divu	a4,a1,a2
     7f0:	00e6c533          	xor	a0,a3,a4
     7f4:	fec00593          	li	a1,-20
     7f8:	ffa00613          	li	a2,-6
     7fc:	00000693          	li	a3,0
     800:	02c5d733          	divu	a4,a1,a2
     804:	00e6c533          	xor	a0,a3,a4
     808:	01400593          	li	a1,20
     80c:	00100613          	li	a2,1
     810:	01400693          	li	a3,20
     814:	02c5d733          	divu	a4,a1,a2
     818:	00e6c533          	xor	a0,a3,a4
     81c:	01400593          	li	a1,20
     820:	01400613          	li	a2,20
     824:	00100693          	li	a3,1
     828:	02c5d733          	divu	a4,a1,a2
     82c:	00e6c533          	xor	a0,a3,a4
     830:	01400593          	li	a1,20
     834:	00400613          	li	a2,4
     838:	00500693          	li	a3,5
     83c:	02c5d733          	divu	a4,a1,a2
     840:	00e6c533          	xor	a0,a3,a4
     844:	01400593          	li	a1,20
     848:	01500613          	li	a2,21
     84c:	00000693          	li	a3,0
     850:	02c5d733          	divu	a4,a1,a2
     854:	00e6c533          	xor	a0,a3,a4
     858:	0000f5b7          	lui	a1,0xf
     85c:	5ff58593          	addi	a1,a1,1535 # f5ff <jal_label2+0xe957>
     860:	05300613          	li	a2,83
     864:	2f600693          	li	a3,758
     868:	02c5d733          	divu	a4,a1,a2
     86c:	00e6c533          	xor	a0,a3,a4
     870:	00100593          	li	a1,1
     874:	00000613          	li	a2,0
     878:	fff00693          	li	a3,-1
     87c:	02c5d733          	divu	a4,a1,a2
     880:	00e6c533          	xor	a0,a3,a4
     884:	02200593          	li	a1,34
     888:	00000613          	li	a2,0
     88c:	fff00693          	li	a3,-1
     890:	02c5d733          	divu	a4,a1,a2
     894:	00e6c533          	xor	a0,a3,a4
     898:	800005b7          	lui	a1,0x80000
     89c:	00200613          	li	a2,2
     8a0:	400006b7          	lui	a3,0x40000
     8a4:	02c5d733          	divu	a4,a1,a2
     8a8:	00e6c533          	xor	a0,a3,a4
     8ac:	800005b7          	lui	a1,0x80000
     8b0:	40000637          	lui	a2,0x40000
     8b4:	00200693          	li	a3,2
     8b8:	02c5d733          	divu	a4,a1,a2
     8bc:	00e6c533          	xor	a0,a3,a4
     8c0:	800005b7          	lui	a1,0x80000
     8c4:	fff00613          	li	a2,-1
     8c8:	000006b7          	lui	a3,0x0
     8cc:	02c5d733          	divu	a4,a1,a2
     8d0:	00e6c533          	xor	a0,a3,a4
     8d4:	10000593          	li	a1,256
     8d8:	12345637          	lui	a2,0x12345
     8dc:	67860613          	addi	a2,a2,1656 # 12345678 <jal_label2+0x123449d0>
     8e0:	f0060153          	fmv.w.x	ft2,a2
     8e4:	0025a027          	fsw	ft2,0(a1) # 80000000 <jal_label2+0x7ffff358>
     8e8:	0005a683          	lw	a3,0(a1)
     8ec:	00d64533          	xor	a0,a2,a3
     8f0:	0025a0a7          	fsw	ft2,1(a1)
     8f4:	0005a683          	lw	a3,0(a1)
     8f8:	00d64533          	xor	a0,a2,a3
     8fc:	0025a127          	fsw	ft2,2(a1)
     900:	0005a683          	lw	a3,0(a1)
     904:	00d64533          	xor	a0,a2,a3
     908:	0025a1a7          	fsw	ft2,3(a1)
     90c:	0005a683          	lw	a3,0(a1)
     910:	00d64533          	xor	a0,a2,a3
     914:	691a9637          	lui	a2,0x691a9
     918:	18d60613          	addi	a2,a2,397 # 691a918d <jal_label2+0x691a84e5>
     91c:	f0060153          	fmv.w.x	ft2,a2
     920:	0025a027          	fsw	ft2,0(a1)
     924:	0005a683          	lw	a3,0(a1)
     928:	00d64533          	xor	a0,a2,a3
     92c:	0025a0a7          	fsw	ft2,1(a1)
     930:	0005a683          	lw	a3,0(a1)
     934:	00d64533          	xor	a0,a2,a3
     938:	0025a127          	fsw	ft2,2(a1)
     93c:	0005a683          	lw	a3,0(a1)
     940:	00d64533          	xor	a0,a2,a3
     944:	0025a1a7          	fsw	ft2,3(a1)
     948:	0005a683          	lw	a3,0(a1)
     94c:	00d64533          	xor	a0,a2,a3
     950:	10000593          	li	a1,256
     954:	f00580d3          	fmv.w.x	ft1,a1
     958:	e0008653          	fmv.x.w	a2,ft1
     95c:	00c5c533          	xor	a0,a1,a2
     960:	123455b7          	lui	a1,0x12345
     964:	67858593          	addi	a1,a1,1656 # 12345678 <jal_label2+0x123449d0>
     968:	f00580d3          	fmv.w.x	ft1,a1
     96c:	e0008653          	fmv.x.w	a2,ft1
     970:	00c5c533          	xor	a0,a1,a2
     974:	10000593          	li	a1,256
     978:	12345637          	lui	a2,0x12345
     97c:	67860613          	addi	a2,a2,1656 # 12345678 <jal_label2+0x123449d0>
     980:	00c5a023          	sw	a2,0(a1)
     984:	0005a187          	flw	ft3,0(a1)
     988:	e00186d3          	fmv.x.w	a3,ft3
     98c:	00d64533          	xor	a0,a2,a3
     990:	0015a187          	flw	ft3,1(a1)
     994:	e00186d3          	fmv.x.w	a3,ft3
     998:	00d64533          	xor	a0,a2,a3
     99c:	0025a187          	flw	ft3,2(a1)
     9a0:	e00186d3          	fmv.x.w	a3,ft3
     9a4:	00d64533          	xor	a0,a2,a3
     9a8:	0035a187          	flw	ft3,3(a1)
     9ac:	e00186d3          	fmv.x.w	a3,ft3
     9b0:	00d64533          	xor	a0,a2,a3
     9b4:	691a9637          	lui	a2,0x691a9
     9b8:	18d60613          	addi	a2,a2,397 # 691a918d <jal_label2+0x691a84e5>
     9bc:	00c5a023          	sw	a2,0(a1)
     9c0:	0005a187          	flw	ft3,0(a1)
     9c4:	e00186d3          	fmv.x.w	a3,ft3
     9c8:	00d64533          	xor	a0,a2,a3
     9cc:	0015a187          	flw	ft3,1(a1)
     9d0:	e00186d3          	fmv.x.w	a3,ft3
     9d4:	00d64533          	xor	a0,a2,a3
     9d8:	0025a187          	flw	ft3,2(a1)
     9dc:	e00186d3          	fmv.x.w	a3,ft3
     9e0:	00d64533          	xor	a0,a2,a3
     9e4:	0035a187          	flw	ft3,3(a1)
     9e8:	e00186d3          	fmv.x.w	a3,ft3
     9ec:	00d64533          	xor	a0,a2,a3
     9f0:	00100593          	li	a1,1
     9f4:	80000637          	lui	a2,0x80000
     9f8:	00c58863          	beq	a1,a2,a08 <beq_error>
     9fc:	00100593          	li	a1,1
     a00:	00100613          	li	a2,1
     a04:	00c58463          	beq	a1,a2,a0c <beq_end>

00000a08 <beq_error>:
     a08:	00100513          	li	a0,1

00000a0c <beq_end>:
     a0c:	00000013          	nop
     a10:	800005b7          	lui	a1,0x80000
     a14:	00100613          	li	a2,1
     a18:	02c5d663          	bge	a1,a2,a44 <bge_error>
     a1c:	00100593          	li	a1,1
     a20:	00200613          	li	a2,2
     a24:	02c5d063          	bge	a1,a2,a44 <bge_error>
     a28:	00100593          	li	a1,1
     a2c:	00100613          	li	a2,1
     a30:	00c5d463          	bge	a1,a2,a38 <bge_next>
     a34:	00100513          	li	a0,1

00000a38 <bge_next>:
     a38:	00200593          	li	a1,2
     a3c:	00100613          	li	a2,1
     a40:	00c5d463          	bge	a1,a2,a48 <bge_end>

00000a44 <bge_error>:
     a44:	00100513          	li	a0,1

00000a48 <bge_end>:
     a48:	00000013          	nop
     a4c:	00100593          	li	a1,1
     a50:	80000637          	lui	a2,0x80000
     a54:	02c5c463          	blt	a1,a2,a7c <blt_error>
     a58:	00200593          	li	a1,2
     a5c:	00100613          	li	a2,1
     a60:	00c5ce63          	blt	a1,a2,a7c <blt_error>
     a64:	00100593          	li	a1,1
     a68:	00100613          	li	a2,1
     a6c:	00c5c863          	blt	a1,a2,a7c <blt_error>
     a70:	00100593          	li	a1,1
     a74:	00200613          	li	a2,2
     a78:	00c5c463          	blt	a1,a2,a80 <blt_end>

00000a7c <blt_error>:
     a7c:	00100513          	li	a0,1

00000a80 <blt_end>:
     a80:	00000013          	nop
     a84:	00100593          	li	a1,1
     a88:	00100613          	li	a2,1
     a8c:	00c59863          	bne	a1,a2,a9c <bne_error>
     a90:	00100593          	li	a1,1
     a94:	80000637          	lui	a2,0x80000
     a98:	00c59463          	bne	a1,a2,aa0 <bne_end>

00000a9c <bne_error>:
     a9c:	00100513          	li	a0,1

00000aa0 <bne_end>:
     aa0:	00000013          	nop
     aa4:	800005b7          	lui	a1,0x80000
     aa8:	00100613          	li	a2,1
     aac:	02c5e463          	bltu	a1,a2,ad4 <bltu_error>
     ab0:	00200593          	li	a1,2
     ab4:	00100613          	li	a2,1
     ab8:	00c5ee63          	bltu	a1,a2,ad4 <bltu_error>
     abc:	00100593          	li	a1,1
     ac0:	00100613          	li	a2,1
     ac4:	00c5e863          	bltu	a1,a2,ad4 <bltu_error>
     ac8:	00100593          	li	a1,1
     acc:	00200613          	li	a2,2
     ad0:	00c5e463          	bltu	a1,a2,ad8 <bltu_end>

00000ad4 <bltu_error>:
     ad4:	00100513          	li	a0,1

00000ad8 <bltu_end>:
     ad8:	00000013          	nop
     adc:	00100593          	li	a1,1
     ae0:	80000637          	lui	a2,0x80000
     ae4:	02c5f663          	bgeu	a1,a2,b10 <bgeu_error>
     ae8:	00100593          	li	a1,1
     aec:	00200613          	li	a2,2
     af0:	02c5f063          	bgeu	a1,a2,b10 <bgeu_error>
     af4:	00100593          	li	a1,1
     af8:	00100613          	li	a2,1
     afc:	00c5f463          	bgeu	a1,a2,b04 <bgeu_next>
     b00:	00100513          	li	a0,1

00000b04 <bgeu_next>:
     b04:	00200593          	li	a1,2
     b08:	00100613          	li	a2,1
     b0c:	00c5f463          	bgeu	a1,a2,b14 <bgeu_end>

00000b10 <bgeu_error>:
     b10:	00100513          	li	a0,1

00000b14 <bgeu_end>:
     b14:	00000013          	nop
     b18:	10000593          	li	a1,256
     b1c:	55555637          	lui	a2,0x55555
     b20:	55560613          	addi	a2,a2,1365 # 55555555 <jal_label2+0x555548ad>
     b24:	00c5a023          	sw	a2,0(a1) # 80000000 <jal_label2+0x7ffff358>
     b28:	00002637          	lui	a2,0x2
     b2c:	22260613          	addi	a2,a2,546 # 2222 <jal_label2+0x157a>
     b30:	55552737          	lui	a4,0x55552
     b34:	22270713          	addi	a4,a4,546 # 55552222 <jal_label2+0x5555157a>
     b38:	00c59023          	sh	a2,0(a1)
     b3c:	0005a683          	lw	a3,0(a1)
     b40:	00e6c533          	xor	a0,a3,a4
     b44:	00c590a3          	sh	a2,1(a1)
     b48:	0005a683          	lw	a3,0(a1)
     b4c:	00e6c533          	xor	a0,a3,a4
     b50:	11110637          	lui	a2,0x11110
     b54:	41065613          	srai	a2,a2,0x10
     b58:	11112737          	lui	a4,0x11112
     b5c:	22270713          	addi	a4,a4,546 # 11112222 <jal_label2+0x1111157a>
     b60:	00c59123          	sh	a2,2(a1)
     b64:	0005a683          	lw	a3,0(a1)
     b68:	00e6c533          	xor	a0,a3,a4
     b6c:	00c591a3          	sh	a2,3(a1)
     b70:	0005a683          	lw	a3,0(a1)
     b74:	00e6c533          	xor	a0,a3,a4
     b78:	10000593          	li	a1,256
     b7c:	12345637          	lui	a2,0x12345
     b80:	67860613          	addi	a2,a2,1656 # 12345678 <jal_label2+0x123449d0>
     b84:	00c5a023          	sw	a2,0(a1)
     b88:	0005a683          	lw	a3,0(a1)
     b8c:	00d64533          	xor	a0,a2,a3
     b90:	00c5a0a3          	sw	a2,1(a1)
     b94:	0005a683          	lw	a3,0(a1)
     b98:	00d64533          	xor	a0,a2,a3
     b9c:	00c5a123          	sw	a2,2(a1)
     ba0:	0005a683          	lw	a3,0(a1)
     ba4:	00d64533          	xor	a0,a2,a3
     ba8:	00c5a1a3          	sw	a2,3(a1)
     bac:	0005a683          	lw	a3,0(a1)
     bb0:	00d64533          	xor	a0,a2,a3
     bb4:	691a9637          	lui	a2,0x691a9
     bb8:	18d60613          	addi	a2,a2,397 # 691a918d <jal_label2+0x691a84e5>
     bbc:	00c5a023          	sw	a2,0(a1)
     bc0:	0005a683          	lw	a3,0(a1)
     bc4:	00d64533          	xor	a0,a2,a3
     bc8:	00c5a0a3          	sw	a2,1(a1)
     bcc:	0005a683          	lw	a3,0(a1)
     bd0:	00d64533          	xor	a0,a2,a3
     bd4:	00c5a123          	sw	a2,2(a1)
     bd8:	0005a683          	lw	a3,0(a1)
     bdc:	00d64533          	xor	a0,a2,a3
     be0:	00c5a1a3          	sw	a2,3(a1)
     be4:	0005a683          	lw	a3,0(a1)
     be8:	00d64533          	xor	a0,a2,a3
     bec:	10000593          	li	a1,256
     bf0:	00000613          	li	a2,0
     bf4:	00c5a023          	sw	a2,0(a1)
     bf8:	01100613          	li	a2,17
     bfc:	00c58023          	sb	a2,0(a1)
     c00:	0005a683          	lw	a3,0(a1)
     c04:	01100713          	li	a4,17
     c08:	00e6c533          	xor	a0,a3,a4
     c0c:	02200613          	li	a2,34
     c10:	00c580a3          	sb	a2,1(a1)
     c14:	0005a683          	lw	a3,0(a1)
     c18:	00002737          	lui	a4,0x2
     c1c:	21170713          	addi	a4,a4,529 # 2211 <jal_label2+0x1569>
     c20:	00e6c533          	xor	a0,a3,a4
     c24:	03300613          	li	a2,51
     c28:	00c58123          	sb	a2,2(a1)
     c2c:	0005a683          	lw	a3,0(a1)
     c30:	00332737          	lui	a4,0x332
     c34:	21170713          	addi	a4,a4,529 # 332211 <jal_label2+0x331569>
     c38:	00e6c533          	xor	a0,a3,a4
     c3c:	04400613          	li	a2,68
     c40:	00c581a3          	sb	a2,3(a1)
     c44:	0005a683          	lw	a3,0(a1)
     c48:	44332737          	lui	a4,0x44332
     c4c:	21170713          	addi	a4,a4,529 # 44332211 <jal_label2+0x44331569>
     c50:	00e6c533          	xor	a0,a3,a4
     c54:	000015b7          	lui	a1,0x1
     c58:	aaa58593          	addi	a1,a1,-1366 # aaa <bne_end+0xa>
     c5c:	123455b7          	lui	a1,0x12345
     c60:	12300613          	li	a2,291
     c64:	00861613          	slli	a2,a2,0x8
     c68:	04560613          	addi	a2,a2,69
     c6c:	00c61613          	slli	a2,a2,0xc
     c70:	00c5c533          	xor	a0,a1,a2
     c74:	004005ef          	jal	a1,c78 <jal_label0>

00000c78 <jal_label0>:
     c78:	00000617          	auipc	a2,0x0
     c7c:	00060613          	mv	a2,a2
     c80:	40c58533          	sub	a0,a1,a2
     c84:	008005ef          	jal	a1,c8c <jal_label1>
     c88:	00000013          	nop

00000c8c <jal_label1>:
     c8c:	00000617          	auipc	a2,0x0
     c90:	00060613          	mv	a2,a2
     c94:	ffc60613          	addi	a2,a2,-4 # c88 <jal_label0+0x10>
     c98:	40c58533          	sub	a0,a1,a2
     c9c:	00c005ef          	jal	a1,ca8 <jal_label2>
     ca0:	00000013          	nop
     ca4:	00000013          	nop

00000ca8 <jal_label2>:
     ca8:	00000617          	auipc	a2,0x0
     cac:	00060613          	mv	a2,a2
     cb0:	ff860613          	addi	a2,a2,-8 # ca0 <jal_label1+0x14>
     cb4:	40c58533          	sub	a0,a1,a2
     cb8:	10000593          	li	a1,256
     cbc:	81238637          	lui	a2,0x81238
     cc0:	45660613          	addi	a2,a2,1110 # 81238456 <jal_label2+0x812377ae>
     cc4:	00c5a023          	sw	a2,0(a1) # 12345000 <jal_label2+0x12344358>
     cc8:	0005a683          	lw	a3,0(a1)
     ccc:	00d64533          	xor	a0,a2,a3
     cd0:	0015a683          	lw	a3,1(a1)
     cd4:	00d64533          	xor	a0,a2,a3
     cd8:	0025a683          	lw	a3,2(a1)
     cdc:	00d64533          	xor	a0,a2,a3
     ce0:	0035a683          	lw	a3,3(a1)
     ce4:	00d64533          	xor	a0,a2,a3
     ce8:	10000593          	li	a1,256
     cec:	81238637          	lui	a2,0x81238
     cf0:	45660613          	addi	a2,a2,1110 # 81238456 <jal_label2+0x812377ae>
     cf4:	00c5a023          	sw	a2,0(a1)
     cf8:	05600713          	li	a4,86
     cfc:	00058683          	lb	a3,0(a1)
     d00:	00e6c533          	xor	a0,a3,a4
     d04:	fffff737          	lui	a4,0xfffff
     d08:	40475713          	srai	a4,a4,0x4
     d0c:	08470713          	addi	a4,a4,132 # fffff084 <jal_label2+0xffffe3dc>
     d10:	00158683          	lb	a3,1(a1)
     d14:	00e6c533          	xor	a0,a3,a4
     d18:	02300713          	li	a4,35
     d1c:	00258683          	lb	a3,2(a1)
     d20:	00e6c533          	xor	a0,a3,a4
     d24:	fffff737          	lui	a4,0xfffff
     d28:	40475713          	srai	a4,a4,0x4
     d2c:	08170713          	addi	a4,a4,129 # fffff081 <jal_label2+0xffffe3d9>
     d30:	00358683          	lb	a3,3(a1)
     d34:	00e6c533          	xor	a0,a3,a4
     d38:	10000593          	li	a1,256
     d3c:	81238637          	lui	a2,0x81238
     d40:	45660613          	addi	a2,a2,1110 # 81238456 <jal_label2+0x812377ae>
     d44:	00c5a023          	sw	a2,0(a1)
     d48:	00008737          	lui	a4,0x8
     d4c:	45670713          	addi	a4,a4,1110 # 8456 <jal_label2+0x77ae>
     d50:	0005d683          	lhu	a3,0(a1)
     d54:	00e6c533          	xor	a0,a3,a4
     d58:	0015d683          	lhu	a3,1(a1)
     d5c:	00e6c533          	xor	a0,a3,a4
     d60:	00008737          	lui	a4,0x8
     d64:	12370713          	addi	a4,a4,291 # 8123 <jal_label2+0x747b>
     d68:	0025d683          	lhu	a3,2(a1)
     d6c:	00e6c533          	xor	a0,a3,a4
     d70:	0035d683          	lhu	a3,3(a1)
     d74:	00e6c533          	xor	a0,a3,a4
     d78:	10000593          	li	a1,256
     d7c:	81238637          	lui	a2,0x81238
     d80:	45660613          	addi	a2,a2,1110 # 81238456 <jal_label2+0x812377ae>
     d84:	00c5a023          	sw	a2,0(a1)
     d88:	05600713          	li	a4,86
     d8c:	0005c683          	lbu	a3,0(a1)
     d90:	00e6c533          	xor	a0,a3,a4
     d94:	08400713          	li	a4,132
     d98:	0015c683          	lbu	a3,1(a1)
     d9c:	00e6c533          	xor	a0,a3,a4
     da0:	02300713          	li	a4,35
     da4:	0025c683          	lbu	a3,2(a1)
     da8:	00e6c533          	xor	a0,a3,a4
     dac:	08100713          	li	a4,129
     db0:	0035c683          	lbu	a3,3(a1)
     db4:	00e6c533          	xor	a0,a3,a4
     db8:	10000593          	li	a1,256
     dbc:	81238637          	lui	a2,0x81238
     dc0:	45660613          	addi	a2,a2,1110 # 81238456 <jal_label2+0x812377ae>
     dc4:	00c5a023          	sw	a2,0(a1)
     dc8:	ffff8737          	lui	a4,0xffff8
     dcc:	45670713          	addi	a4,a4,1110 # ffff8456 <jal_label2+0xffff77ae>
     dd0:	00059683          	lh	a3,0(a1)
     dd4:	00e6c533          	xor	a0,a3,a4
     dd8:	00159683          	lh	a3,1(a1)
     ddc:	00e6c533          	xor	a0,a3,a4
     de0:	ffff8737          	lui	a4,0xffff8
     de4:	12370713          	addi	a4,a4,291 # ffff8123 <jal_label2+0xffff747b>
     de8:	00259683          	lh	a3,2(a1)
     dec:	00e6c533          	xor	a0,a3,a4
     df0:	00359683          	lh	a3,3(a1)
     df4:	00e6c533          	xor	a0,a3,a4
     df8:	00000597          	auipc	a1,0x0
     dfc:	00000617          	auipc	a2,0x0
     e00:	00458593          	addi	a1,a1,4 # dfc <jal_label2+0x154>
     e04:	00c5c533          	xor	a0,a1,a2
     e08:	00000597          	auipc	a1,0x0
     e0c:	00000013          	nop
     e10:	00000617          	auipc	a2,0x0
     e14:	00858593          	addi	a1,a1,8 # e10 <jal_label2+0x168>
     e18:	00c5c533          	xor	a0,a1,a2
     e1c:	00001597          	auipc	a1,0x1
     e20:	00000617          	auipc	a2,0x0
     e24:	00458593          	addi	a1,a1,4 # 1e20 <jal_label2+0x1178>
     e28:	000016b7          	lui	a3,0x1
     e2c:	00d60633          	add	a2,a2,a3
     e30:	00c5c533          	xor	a0,a1,a2
     e34:	00000597          	auipc	a1,0x0
     e38:	00c58667          	jalr	a2,12(a1) # e40 <jal_label2+0x198>
     e3c:	00100513          	li	a0,1
     e40:	00858593          	addi	a1,a1,8
     e44:	00c5c533          	xor	a0,a1,a2
     e48:	00000597          	auipc	a1,0x0
     e4c:	01458667          	jalr	a2,20(a1) # e5c <jal_label2+0x1b4>
     e50:	00100513          	li	a0,1
     e54:	00100513          	li	a0,1
     e58:	00100513          	li	a0,1
     e5c:	00858593          	addi	a1,a1,8
     e60:	00c5c533          	xor	a0,a1,a2
     e64:	00100593          	li	a1,1
     e68:	00100613          	li	a2,1
     e6c:	00200693          	li	a3,2
     e70:	00c59733          	sll	a4,a1,a2
     e74:	00e6c533          	xor	a0,a3,a4
     e78:	000015b7          	lui	a1,0x1
     e7c:	23458593          	addi	a1,a1,564 # 1234 <jal_label2+0x58c>
     e80:	00400613          	li	a2,4
     e84:	000126b7          	lui	a3,0x12
     e88:	34068693          	addi	a3,a3,832 # 12340 <jal_label2+0x11698>
     e8c:	00c59733          	sll	a4,a1,a2
     e90:	00e6c533          	xor	a0,a3,a4
     e94:	fff00593          	li	a1,-1
     e98:	00200613          	li	a2,2
     e9c:	ffc00693          	li	a3,-4
     ea0:	00c59733          	sll	a4,a1,a2
     ea4:	00e6c533          	xor	a0,a3,a4
     ea8:	111115b7          	lui	a1,0x11111
     eac:	11158593          	addi	a1,a1,273 # 11111111 <jal_label2+0x11110469>
     eb0:	01f00613          	li	a2,31
     eb4:	800006b7          	lui	a3,0x80000
     eb8:	00c59733          	sll	a4,a1,a2
     ebc:	00e6c533          	xor	a0,a3,a4
     ec0:	111115b7          	lui	a1,0x11111
     ec4:	11158593          	addi	a1,a1,273 # 11111111 <jal_label2+0x11110469>
     ec8:	00001637          	lui	a2,0x1
     ecc:	f1f60613          	addi	a2,a2,-225 # f1f <jal_label2+0x277>
     ed0:	800006b7          	lui	a3,0x80000
     ed4:	00c59733          	sll	a4,a1,a2
     ed8:	00e6c533          	xor	a0,a3,a4
     edc:	800005b7          	lui	a1,0x80000
     ee0:	00100613          	li	a2,1
     ee4:	00000693          	li	a3,0
     ee8:	00c59733          	sll	a4,a1,a2
     eec:	00e6c533          	xor	a0,a3,a4
     ef0:	09300593          	li	a1,147
     ef4:	05500613          	li	a2,85
     ef8:	03e00693          	li	a3,62
     efc:	40c58733          	sub	a4,a1,a2
     f00:	00e6c533          	xor	a0,a3,a4
     f04:	06300593          	li	a1,99
     f08:	06800613          	li	a2,104
     f0c:	ffb00693          	li	a3,-5
     f10:	40c58733          	sub	a4,a1,a2
     f14:	00e6c533          	xor	a0,a3,a4
     f18:	10000593          	li	a1,256
     f1c:	00000613          	li	a2,0
     f20:	10000693          	li	a3,256
     f24:	40c58733          	sub	a4,a1,a2
     f28:	00e6c533          	xor	a0,a3,a4
     f2c:	00000593          	li	a1,0
     f30:	00100613          	li	a2,1
     f34:	fff00693          	li	a3,-1
     f38:	40c58733          	sub	a4,a1,a2
     f3c:	00e6c533          	xor	a0,a3,a4
     f40:	00000593          	li	a1,0
     f44:	00f00613          	li	a2,15
     f48:	ff100693          	li	a3,-15
     f4c:	40c58733          	sub	a4,a1,a2
     f50:	00e6c533          	xor	a0,a3,a4
     f54:	000015b7          	lui	a1,0x1
     f58:	23458593          	addi	a1,a1,564 # 1234 <jal_label2+0x58c>
     f5c:	00001637          	lui	a2,0x1
     f60:	23460613          	addi	a2,a2,564 # 1234 <jal_label2+0x58c>
     f64:	00000693          	li	a3,0
     f68:	40c58733          	sub	a4,a1,a2
     f6c:	00e6c533          	xor	a0,a3,a4
     f70:	00200593          	li	a1,2
     f74:	00100613          	li	a2,1
     f78:	00100693          	li	a3,1
     f7c:	00c5d733          	srl	a4,a1,a2
     f80:	00e6c533          	xor	a0,a3,a4
     f84:	000125b7          	lui	a1,0x12
     f88:	34058593          	addi	a1,a1,832 # 12340 <jal_label2+0x11698>
     f8c:	00400613          	li	a2,4
     f90:	000016b7          	lui	a3,0x1
     f94:	23468693          	addi	a3,a3,564 # 1234 <jal_label2+0x58c>
     f98:	00c5d733          	srl	a4,a1,a2
     f9c:	00e6c533          	xor	a0,a3,a4
     fa0:	fff00593          	li	a1,-1
     fa4:	00400613          	li	a2,4
     fa8:	100006b7          	lui	a3,0x10000
     fac:	fff68693          	addi	a3,a3,-1 # fffffff <jal_label2+0xffff357>
     fb0:	00c5d733          	srl	a4,a1,a2
     fb4:	00e6c533          	xor	a0,a3,a4
     fb8:	888895b7          	lui	a1,0x88889
     fbc:	88858593          	addi	a1,a1,-1912 # 88888888 <jal_label2+0x88887be0>
     fc0:	01f00613          	li	a2,31
     fc4:	00100693          	li	a3,1
     fc8:	00c5d733          	srl	a4,a1,a2
     fcc:	00e6c533          	xor	a0,a3,a4
     fd0:	888895b7          	lui	a1,0x88889
     fd4:	88858593          	addi	a1,a1,-1912 # 88888888 <jal_label2+0x88887be0>
     fd8:	00001637          	lui	a2,0x1
     fdc:	f1f60613          	addi	a2,a2,-225 # f1f <jal_label2+0x277>
     fe0:	00100693          	li	a3,1
     fe4:	00c5d733          	srl	a4,a1,a2
     fe8:	00e6c533          	xor	a0,a3,a4
     fec:	00100593          	li	a1,1
     ff0:	00100613          	li	a2,1
     ff4:	00000693          	li	a3,0
     ff8:	00c5d733          	srl	a4,a1,a2
     ffc:	00e6c533          	xor	a0,a3,a4
    1000:	02900593          	li	a1,41
    1004:	04c00613          	li	a2,76
    1008:	07500693          	li	a3,117
    100c:	00c58733          	add	a4,a1,a2
    1010:	00e6c533          	xor	a0,a3,a4
    1014:	03f00593          	li	a1,63
    1018:	05200613          	li	a2,82
    101c:	09100693          	li	a3,145
    1020:	00c58733          	add	a4,a1,a2
    1024:	00e6c533          	xor	a0,a3,a4
    1028:	10000593          	li	a1,256
    102c:	00000613          	li	a2,0
    1030:	10000693          	li	a3,256
    1034:	00c58733          	add	a4,a1,a2
    1038:	00e6c533          	xor	a0,a3,a4
    103c:	fff00593          	li	a1,-1
    1040:	00100613          	li	a2,1
    1044:	00000693          	li	a3,0
    1048:	00c58733          	add	a4,a1,a2
    104c:	00e6c533          	xor	a0,a3,a4
    1050:	fff00593          	li	a1,-1
    1054:	00200613          	li	a2,2
    1058:	00100693          	li	a3,1
    105c:	00c58733          	add	a4,a1,a2
    1060:	00e6c533          	xor	a0,a3,a4
    1064:	fff00593          	li	a1,-1
    1068:	fff00613          	li	a2,-1
    106c:	ffe00693          	li	a3,-2
    1070:	00c58733          	add	a4,a1,a2
    1074:	00e6c533          	xor	a0,a3,a4
    1078:	00000593          	li	a1,0
    107c:	00100613          	li	a2,1
    1080:	00100693          	li	a3,1
    1084:	00c5c733          	xor	a4,a1,a2
    1088:	00e6c533          	xor	a0,a3,a4
    108c:	00100593          	li	a1,1
    1090:	00300613          	li	a2,3
    1094:	00200693          	li	a3,2
    1098:	00c5c733          	xor	a4,a1,a2
    109c:	00e6c533          	xor	a0,a3,a4
    10a0:	37800593          	li	a1,888
    10a4:	37800613          	li	a2,888
    10a8:	00000693          	li	a3,0
    10ac:	00c5c733          	xor	a4,a1,a2
    10b0:	00e6c533          	xor	a0,a3,a4
    10b4:	28400593          	li	a1,644
    10b8:	00000613          	li	a2,0
    10bc:	28400693          	li	a3,644
    10c0:	00c5c733          	xor	a4,a1,a2
    10c4:	00e6c533          	xor	a0,a3,a4
    10c8:	333335b7          	lui	a1,0x33333
    10cc:	33358593          	addi	a1,a1,819 # 33333333 <jal_label2+0x3333268b>
    10d0:	ccccd637          	lui	a2,0xccccd
    10d4:	ccc60613          	addi	a2,a2,-820 # cccccccc <jal_label2+0xccccc024>
    10d8:	fff00693          	li	a3,-1
    10dc:	00c5c733          	xor	a4,a1,a2
    10e0:	00e6c533          	xor	a0,a3,a4
    10e4:	333335b7          	lui	a1,0x33333
    10e8:	33358593          	addi	a1,a1,819 # 33333333 <jal_label2+0x3333268b>
    10ec:	22221637          	lui	a2,0x22221
    10f0:	11160613          	addi	a2,a2,273 # 22221111 <jal_label2+0x22220469>
    10f4:	111126b7          	lui	a3,0x11112
    10f8:	22268693          	addi	a3,a3,546 # 11112222 <jal_label2+0x1111157a>
    10fc:	00c5c733          	xor	a4,a1,a2
    1100:	00e6c533          	xor	a0,a3,a4
    1104:	000105b7          	lui	a1,0x10
    1108:	f0058593          	addi	a1,a1,-256 # ff00 <jal_label2+0xf258>
    110c:	0ff00613          	li	a2,255
    1110:	00000693          	li	a3,0
    1114:	00c5f733          	and	a4,a1,a2
    1118:	00e6c533          	xor	a0,a3,a4
    111c:	000105b7          	lui	a1,0x10
    1120:	ff058593          	addi	a1,a1,-16 # fff0 <jal_label2+0xf348>
    1124:	0ff00613          	li	a2,255
    1128:	0f000693          	li	a3,240
    112c:	00c5f733          	and	a4,a1,a2
    1130:	00e6c533          	xor	a0,a3,a4
    1134:	47400593          	li	a1,1140
    1138:	47400613          	li	a2,1140
    113c:	47400693          	li	a3,1140
    1140:	00c5f733          	and	a4,a1,a2
    1144:	00e6c533          	xor	a0,a3,a4
    1148:	14100593          	li	a1,321
    114c:	14100613          	li	a2,321
    1150:	14100693          	li	a3,321
    1154:	00c5f733          	and	a4,a1,a2
    1158:	00e6c533          	xor	a0,a3,a4
    115c:	fff00593          	li	a1,-1
    1160:	12345637          	lui	a2,0x12345
    1164:	67860613          	addi	a2,a2,1656 # 12345678 <jal_label2+0x123449d0>
    1168:	123456b7          	lui	a3,0x12345
    116c:	67868693          	addi	a3,a3,1656 # 12345678 <jal_label2+0x123449d0>
    1170:	00c5f733          	and	a4,a1,a2
    1174:	00e6c533          	xor	a0,a3,a4
    1178:	00000593          	li	a1,0
    117c:	12345637          	lui	a2,0x12345
    1180:	67860613          	addi	a2,a2,1656 # 12345678 <jal_label2+0x123449d0>
    1184:	00000693          	li	a3,0
    1188:	00c5f733          	and	a4,a1,a2
    118c:	00e6c533          	xor	a0,a3,a4
    1190:	00200593          	li	a1,2
    1194:	00100613          	li	a2,1
    1198:	00000693          	li	a3,0
    119c:	00c5b733          	sltu	a4,a1,a2
    11a0:	00e6c533          	xor	a0,a3,a4
    11a4:	00100593          	li	a1,1
    11a8:	00200613          	li	a2,2
    11ac:	00100693          	li	a3,1
    11b0:	00c5b733          	sltu	a4,a1,a2
    11b4:	00e6c533          	xor	a0,a3,a4
    11b8:	36300593          	li	a1,867
    11bc:	27500613          	li	a2,629
    11c0:	00000693          	li	a3,0
    11c4:	00c5b733          	sltu	a4,a1,a2
    11c8:	00e6c533          	xor	a0,a3,a4
    11cc:	26400593          	li	a1,612
    11d0:	78400613          	li	a2,1924
    11d4:	00100693          	li	a3,1
    11d8:	00c5b733          	sltu	a4,a1,a2
    11dc:	00e6c533          	xor	a0,a3,a4
    11e0:	fff00593          	li	a1,-1
    11e4:	00100613          	li	a2,1
    11e8:	00000693          	li	a3,0
    11ec:	00c5b733          	sltu	a4,a1,a2
    11f0:	00e6c533          	xor	a0,a3,a4
    11f4:	fff00593          	li	a1,-1
    11f8:	ffe00613          	li	a2,-2
    11fc:	00000693          	li	a3,0
    1200:	00c5b733          	sltu	a4,a1,a2
    1204:	00e6c533          	xor	a0,a3,a4
    1208:	00200593          	li	a1,2
    120c:	00100613          	li	a2,1
    1210:	00100693          	li	a3,1
    1214:	40c5d733          	sra	a4,a1,a2
    1218:	00e6c533          	xor	a0,a3,a4
    121c:	000125b7          	lui	a1,0x12
    1220:	34058593          	addi	a1,a1,832 # 12340 <jal_label2+0x11698>
    1224:	00400613          	li	a2,4
    1228:	000016b7          	lui	a3,0x1
    122c:	23468693          	addi	a3,a3,564 # 1234 <jal_label2+0x58c>
    1230:	40c5d733          	sra	a4,a1,a2
    1234:	00e6c533          	xor	a0,a3,a4
    1238:	fff00593          	li	a1,-1
    123c:	00400613          	li	a2,4
    1240:	fff00693          	li	a3,-1
    1244:	40c5d733          	sra	a4,a1,a2
    1248:	00e6c533          	xor	a0,a3,a4
    124c:	888895b7          	lui	a1,0x88889
    1250:	88858593          	addi	a1,a1,-1912 # 88888888 <jal_label2+0x88887be0>
    1254:	01f00613          	li	a2,31
    1258:	fff00693          	li	a3,-1
    125c:	40c5d733          	sra	a4,a1,a2
    1260:	00e6c533          	xor	a0,a3,a4
    1264:	888895b7          	lui	a1,0x88889
    1268:	88858593          	addi	a1,a1,-1912 # 88888888 <jal_label2+0x88887be0>
    126c:	00001637          	lui	a2,0x1
    1270:	f1f60613          	addi	a2,a2,-225 # f1f <jal_label2+0x277>
    1274:	fff00693          	li	a3,-1
    1278:	40c5d733          	sra	a4,a1,a2
    127c:	00e6c533          	xor	a0,a3,a4
    1280:	00100593          	li	a1,1
    1284:	00100613          	li	a2,1
    1288:	00000693          	li	a3,0
    128c:	40c5d733          	sra	a4,a1,a2
    1290:	00e6c533          	xor	a0,a3,a4
    1294:	000105b7          	lui	a1,0x10
    1298:	f0058593          	addi	a1,a1,-256 # ff00 <jal_label2+0xf258>
    129c:	0ff00613          	li	a2,255
    12a0:	000106b7          	lui	a3,0x10
    12a4:	fff68693          	addi	a3,a3,-1 # ffff <jal_label2+0xf357>
    12a8:	00c5e733          	or	a4,a1,a2
    12ac:	00e6c533          	xor	a0,a3,a4
    12b0:	0000f5b7          	lui	a1,0xf
    12b4:	0ff00613          	li	a2,255
    12b8:	0000f6b7          	lui	a3,0xf
    12bc:	0ff68693          	addi	a3,a3,255 # f0ff <jal_label2+0xe457>
    12c0:	00c5e733          	or	a4,a1,a2
    12c4:	00e6c533          	xor	a0,a3,a4
    12c8:	64500593          	li	a1,1605
    12cc:	64500613          	li	a2,1605
    12d0:	64500693          	li	a3,1605
    12d4:	00c5e733          	or	a4,a1,a2
    12d8:	00e6c533          	xor	a0,a3,a4
    12dc:	73400593          	li	a1,1844
    12e0:	73400613          	li	a2,1844
    12e4:	73400693          	li	a3,1844
    12e8:	00c5e733          	or	a4,a1,a2
    12ec:	00e6c533          	xor	a0,a3,a4
    12f0:	fff00593          	li	a1,-1
    12f4:	12345637          	lui	a2,0x12345
    12f8:	67860613          	addi	a2,a2,1656 # 12345678 <jal_label2+0x123449d0>
    12fc:	fff00693          	li	a3,-1
    1300:	00c5e733          	or	a4,a1,a2
    1304:	00e6c533          	xor	a0,a3,a4
    1308:	00000593          	li	a1,0
    130c:	12345637          	lui	a2,0x12345
    1310:	67860613          	addi	a2,a2,1656 # 12345678 <jal_label2+0x123449d0>
    1314:	123456b7          	lui	a3,0x12345
    1318:	67868693          	addi	a3,a3,1656 # 12345678 <jal_label2+0x123449d0>
    131c:	00c5e733          	or	a4,a1,a2
    1320:	00e6c533          	xor	a0,a3,a4
    1324:	00200593          	li	a1,2
    1328:	00100613          	li	a2,1
    132c:	00000693          	li	a3,0
    1330:	00c5a733          	slt	a4,a1,a2
    1334:	00e6c533          	xor	a0,a3,a4
    1338:	00100593          	li	a1,1
    133c:	00200613          	li	a2,2
    1340:	00100693          	li	a3,1
    1344:	00c5a733          	slt	a4,a1,a2
    1348:	00e6c533          	xor	a0,a3,a4
    134c:	36300593          	li	a1,867
    1350:	27500613          	li	a2,629
    1354:	00000693          	li	a3,0
    1358:	00c5a733          	slt	a4,a1,a2
    135c:	00e6c533          	xor	a0,a3,a4
    1360:	26400593          	li	a1,612
    1364:	78400613          	li	a2,1924
    1368:	00100693          	li	a3,1
    136c:	00c5a733          	slt	a4,a1,a2
    1370:	00e6c533          	xor	a0,a3,a4
    1374:	fff00593          	li	a1,-1
    1378:	00100613          	li	a2,1
    137c:	00100693          	li	a3,1
    1380:	00c5a733          	slt	a4,a1,a2
    1384:	00e6c533          	xor	a0,a3,a4
    1388:	fff00593          	li	a1,-1
    138c:	ffe00613          	li	a2,-2
    1390:	00000693          	li	a3,0
    1394:	00c5a733          	slt	a4,a1,a2
    1398:	00e6c533          	xor	a0,a3,a4
    139c:	00000593          	li	a1,0
    13a0:	00100693          	li	a3,1
    13a4:	0015c713          	xori	a4,a1,1
    13a8:	00e6c533          	xor	a0,a3,a4
    13ac:	00100593          	li	a1,1
    13b0:	00200693          	li	a3,2
    13b4:	0035c713          	xori	a4,a1,3
    13b8:	00e6c533          	xor	a0,a3,a4
    13bc:	37800593          	li	a1,888
    13c0:	00000693          	li	a3,0
    13c4:	3785c713          	xori	a4,a1,888
    13c8:	00e6c533          	xor	a0,a3,a4
    13cc:	28400593          	li	a1,644
    13d0:	28400693          	li	a3,644
    13d4:	0005c713          	xori	a4,a1,0
    13d8:	00e6c533          	xor	a0,a3,a4
    13dc:	03300593          	li	a1,51
    13e0:	0cc00693          	li	a3,204
    13e4:	0ff5c713          	xori	a4,a1,255
    13e8:	00e6c533          	xor	a0,a3,a4
    13ec:	03300593          	li	a1,51
    13f0:	01200693          	li	a3,18
    13f4:	0215c713          	xori	a4,a1,33
    13f8:	00e6c533          	xor	a0,a3,a4
    13fc:	00200593          	li	a1,2
    1400:	00100693          	li	a3,1
    1404:	0015d713          	srli	a4,a1,0x1
    1408:	00e6c533          	xor	a0,a3,a4
    140c:	000125b7          	lui	a1,0x12
    1410:	34058593          	addi	a1,a1,832 # 12340 <jal_label2+0x11698>
    1414:	000016b7          	lui	a3,0x1
    1418:	23468693          	addi	a3,a3,564 # 1234 <jal_label2+0x58c>
    141c:	0045d713          	srli	a4,a1,0x4
    1420:	00e6c533          	xor	a0,a3,a4
    1424:	fff00593          	li	a1,-1
    1428:	100006b7          	lui	a3,0x10000
    142c:	fff68693          	addi	a3,a3,-1 # fffffff <jal_label2+0xffff357>
    1430:	0045d713          	srli	a4,a1,0x4
    1434:	00e6c533          	xor	a0,a3,a4
    1438:	888895b7          	lui	a1,0x88889
    143c:	88858593          	addi	a1,a1,-1912 # 88888888 <jal_label2+0x88887be0>
    1440:	00100693          	li	a3,1
    1444:	01f5d713          	srli	a4,a1,0x1f
    1448:	00e6c533          	xor	a0,a3,a4
    144c:	888895b7          	lui	a1,0x88889
    1450:	88858593          	addi	a1,a1,-1912 # 88888888 <jal_label2+0x88887be0>
    1454:	00100693          	li	a3,1
    1458:	01f5d713          	srli	a4,a1,0x1f
    145c:	00e6c533          	xor	a0,a3,a4
    1460:	00100593          	li	a1,1
    1464:	00000693          	li	a3,0
    1468:	0015d713          	srli	a4,a1,0x1
    146c:	00e6c533          	xor	a0,a3,a4
    1470:	00200593          	li	a1,2
    1474:	00000693          	li	a3,0
    1478:	0015a713          	slti	a4,a1,1
    147c:	00e6c533          	xor	a0,a3,a4
    1480:	00100593          	li	a1,1
    1484:	00100693          	li	a3,1
    1488:	0025a713          	slti	a4,a1,2
    148c:	00e6c533          	xor	a0,a3,a4
    1490:	36300593          	li	a1,867
    1494:	00000693          	li	a3,0
    1498:	2755a713          	slti	a4,a1,629
    149c:	00e6c533          	xor	a0,a3,a4
    14a0:	26400593          	li	a1,612
    14a4:	00100693          	li	a3,1
    14a8:	7845a713          	slti	a4,a1,1924
    14ac:	00e6c533          	xor	a0,a3,a4
    14b0:	fff00593          	li	a1,-1
    14b4:	00100693          	li	a3,1
    14b8:	0015a713          	slti	a4,a1,1
    14bc:	00e6c533          	xor	a0,a3,a4
    14c0:	fff00593          	li	a1,-1
    14c4:	00000693          	li	a3,0
    14c8:	ffe5a713          	slti	a4,a1,-2
    14cc:	00e6c533          	xor	a0,a3,a4
    14d0:	00200593          	li	a1,2
    14d4:	00000693          	li	a3,0
    14d8:	0015b713          	seqz	a4,a1
    14dc:	00e6c533          	xor	a0,a3,a4
    14e0:	00100593          	li	a1,1
    14e4:	00100693          	li	a3,1
    14e8:	0025b713          	sltiu	a4,a1,2
    14ec:	00e6c533          	xor	a0,a3,a4
    14f0:	36300593          	li	a1,867
    14f4:	00000693          	li	a3,0
    14f8:	2755b713          	sltiu	a4,a1,629
    14fc:	00e6c533          	xor	a0,a3,a4
    1500:	26400593          	li	a1,612
    1504:	00100693          	li	a3,1
    1508:	7845b713          	sltiu	a4,a1,1924
    150c:	00e6c533          	xor	a0,a3,a4
    1510:	fff00593          	li	a1,-1
    1514:	00000693          	li	a3,0
    1518:	0015b713          	seqz	a4,a1
    151c:	00e6c533          	xor	a0,a3,a4
    1520:	fff00593          	li	a1,-1
    1524:	00000693          	li	a3,0
    1528:	ffe5b713          	sltiu	a4,a1,-2
    152c:	00e6c533          	xor	a0,a3,a4
    1530:	000105b7          	lui	a1,0x10
    1534:	f0058593          	addi	a1,a1,-256 # ff00 <jal_label2+0xf258>
    1538:	00000693          	li	a3,0
    153c:	0ff5f713          	zext.b	a4,a1
    1540:	00e6c533          	xor	a0,a3,a4
    1544:	000105b7          	lui	a1,0x10
    1548:	ff058593          	addi	a1,a1,-16 # fff0 <jal_label2+0xf348>
    154c:	0f000693          	li	a3,240
    1550:	0ff5f713          	zext.b	a4,a1
    1554:	00e6c533          	xor	a0,a3,a4
    1558:	07400593          	li	a1,116
    155c:	07400693          	li	a3,116
    1560:	0745f713          	andi	a4,a1,116
    1564:	00e6c533          	xor	a0,a3,a4
    1568:	01400593          	li	a1,20
    156c:	01400693          	li	a3,20
    1570:	0145f713          	andi	a4,a1,20
    1574:	00e6c533          	xor	a0,a3,a4
    1578:	000015b7          	lui	a1,0x1
    157c:	fff58593          	addi	a1,a1,-1 # fff <jal_label2+0x357>
    1580:	12300693          	li	a3,291
    1584:	1235f713          	andi	a4,a1,291
    1588:	00e6c533          	xor	a0,a3,a4
    158c:	00000593          	li	a1,0
    1590:	00000693          	li	a3,0
    1594:	1235f713          	andi	a4,a1,291
    1598:	00e6c533          	xor	a0,a3,a4
    159c:	02900593          	li	a1,41
    15a0:	07500693          	li	a3,117
    15a4:	04c58713          	addi	a4,a1,76
    15a8:	00e6c533          	xor	a0,a3,a4
    15ac:	03f00593          	li	a1,63
    15b0:	09100693          	li	a3,145
    15b4:	05258713          	addi	a4,a1,82
    15b8:	00e6c533          	xor	a0,a3,a4
    15bc:	10000593          	li	a1,256
    15c0:	10000693          	li	a3,256
    15c4:	00058713          	mv	a4,a1
    15c8:	00e6c533          	xor	a0,a3,a4
    15cc:	fff00593          	li	a1,-1
    15d0:	00000693          	li	a3,0
    15d4:	00158713          	addi	a4,a1,1
    15d8:	00e6c533          	xor	a0,a3,a4
    15dc:	fff00593          	li	a1,-1
    15e0:	00100693          	li	a3,1
    15e4:	00258713          	addi	a4,a1,2
    15e8:	00e6c533          	xor	a0,a3,a4
    15ec:	fff00593          	li	a1,-1
    15f0:	ffe00693          	li	a3,-2
    15f4:	fff58713          	addi	a4,a1,-1
    15f8:	00e6c533          	xor	a0,a3,a4
    15fc:	00200593          	li	a1,2
    1600:	00100693          	li	a3,1
    1604:	4015d713          	srai	a4,a1,0x1
    1608:	00e6c533          	xor	a0,a3,a4
    160c:	000125b7          	lui	a1,0x12
    1610:	34058593          	addi	a1,a1,832 # 12340 <jal_label2+0x11698>
    1614:	000016b7          	lui	a3,0x1
    1618:	23468693          	addi	a3,a3,564 # 1234 <jal_label2+0x58c>
    161c:	4045d713          	srai	a4,a1,0x4
    1620:	00e6c533          	xor	a0,a3,a4
    1624:	fff00593          	li	a1,-1
    1628:	fff00693          	li	a3,-1
    162c:	4045d713          	srai	a4,a1,0x4
    1630:	00e6c533          	xor	a0,a3,a4
    1634:	888895b7          	lui	a1,0x88889
    1638:	88858593          	addi	a1,a1,-1912 # 88888888 <jal_label2+0x88887be0>
    163c:	fff00693          	li	a3,-1
    1640:	41f5d713          	srai	a4,a1,0x1f
    1644:	00e6c533          	xor	a0,a3,a4
    1648:	888895b7          	lui	a1,0x88889
    164c:	88858593          	addi	a1,a1,-1912 # 88888888 <jal_label2+0x88887be0>
    1650:	fff00693          	li	a3,-1
    1654:	41f5d713          	srai	a4,a1,0x1f
    1658:	00e6c533          	xor	a0,a3,a4
    165c:	00100593          	li	a1,1
    1660:	00000693          	li	a3,0
    1664:	4015d713          	srai	a4,a1,0x1
    1668:	00e6c533          	xor	a0,a3,a4
    166c:	00100593          	li	a1,1
    1670:	00200693          	li	a3,2
    1674:	00159713          	slli	a4,a1,0x1
    1678:	00e6c533          	xor	a0,a3,a4
    167c:	000015b7          	lui	a1,0x1
    1680:	23458593          	addi	a1,a1,564 # 1234 <jal_label2+0x58c>
    1684:	000126b7          	lui	a3,0x12
    1688:	34068693          	addi	a3,a3,832 # 12340 <jal_label2+0x11698>
    168c:	00459713          	slli	a4,a1,0x4
    1690:	00e6c533          	xor	a0,a3,a4
    1694:	fff00593          	li	a1,-1
    1698:	ffc00693          	li	a3,-4
    169c:	00259713          	slli	a4,a1,0x2
    16a0:	00e6c533          	xor	a0,a3,a4
    16a4:	111115b7          	lui	a1,0x11111
    16a8:	11158593          	addi	a1,a1,273 # 11111111 <jal_label2+0x11110469>
    16ac:	800006b7          	lui	a3,0x80000
    16b0:	01f59713          	slli	a4,a1,0x1f
    16b4:	00e6c533          	xor	a0,a3,a4
    16b8:	111115b7          	lui	a1,0x11111
    16bc:	11158593          	addi	a1,a1,273 # 11111111 <jal_label2+0x11110469>
    16c0:	800006b7          	lui	a3,0x80000
    16c4:	01f59713          	slli	a4,a1,0x1f
    16c8:	00e6c533          	xor	a0,a3,a4
    16cc:	800005b7          	lui	a1,0x80000
    16d0:	00000693          	li	a3,0
    16d4:	00159713          	slli	a4,a1,0x1
    16d8:	00e6c533          	xor	a0,a3,a4
    16dc:	000105b7          	lui	a1,0x10
    16e0:	f0058593          	addi	a1,a1,-256 # ff00 <jal_label2+0xf258>
    16e4:	000106b7          	lui	a3,0x10
    16e8:	fff68693          	addi	a3,a3,-1 # ffff <jal_label2+0xf357>
    16ec:	0ff5e713          	ori	a4,a1,255
    16f0:	00e6c533          	xor	a0,a3,a4
    16f4:	0000f5b7          	lui	a1,0xf
    16f8:	0000f6b7          	lui	a3,0xf
    16fc:	0ff68693          	addi	a3,a3,255 # f0ff <jal_label2+0xe457>
    1700:	0ff5e713          	ori	a4,a1,255
    1704:	00e6c533          	xor	a0,a3,a4
    1708:	04500593          	li	a1,69
    170c:	04500693          	li	a3,69
    1710:	0455e713          	ori	a4,a1,69
    1714:	00e6c533          	xor	a0,a3,a4
    1718:	03400593          	li	a1,52
    171c:	03400693          	li	a3,52
    1720:	0345e713          	ori	a4,a1,52
    1724:	00e6c533          	xor	a0,a3,a4
    1728:	000015b7          	lui	a1,0x1
    172c:	fff58593          	addi	a1,a1,-1 # fff <jal_label2+0x357>
    1730:	000016b7          	lui	a3,0x1
    1734:	fff68693          	addi	a3,a3,-1 # fff <jal_label2+0x357>
    1738:	1235e713          	ori	a4,a1,291
    173c:	00e6c533          	xor	a0,a3,a4
    1740:	00000593          	li	a1,0
    1744:	12300693          	li	a3,291
    1748:	1235e713          	ori	a4,a1,291
    174c:	00e6c533          	xor	a0,a3,a4
