
tests.o:     file format elf32-littleriscv


Disassembly of section .text:

00000000 <beq_bench>:
       0:	00100693          	li	a3,1
       4:	00100593          	li	a1,1
       8:	80000637          	lui	a2,0x80000
       c:	12c58063          	beq	a1,a2,12c <error>
      10:	00100593          	li	a1,1
      14:	00100613          	li	a2,1
      18:	00c58463          	beq	a1,a2,20 <bne_bench>
      1c:	11188863          	beq	a7,a7,12c <error>

00000020 <bne_bench>:
      20:	00200693          	li	a3,2
      24:	00100593          	li	a1,1
      28:	00100613          	li	a2,1
      2c:	10c59063          	bne	a1,a2,12c <error>
      30:	00100593          	li	a1,1
      34:	80000637          	lui	a2,0x80000
      38:	00c59463          	bne	a1,a2,40 <blt_bench>
      3c:	0f188863          	beq	a7,a7,12c <error>

00000040 <blt_bench>:
      40:	00300693          	li	a3,3
      44:	00100593          	li	a1,1
      48:	80000637          	lui	a2,0x80000
      4c:	0ec5c063          	blt	a1,a2,12c <error>
      50:	00200593          	li	a1,2
      54:	00100613          	li	a2,1
      58:	0cc5ca63          	blt	a1,a2,12c <error>
      5c:	00100593          	li	a1,1
      60:	00100613          	li	a2,1
      64:	0cc5c463          	blt	a1,a2,12c <error>
      68:	00100593          	li	a1,1
      6c:	00200613          	li	a2,2
      70:	00c5c463          	blt	a1,a2,78 <bge_bench>
      74:	0b188c63          	beq	a7,a7,12c <error>

00000078 <bge_bench>:
      78:	00400693          	li	a3,4
      7c:	800005b7          	lui	a1,0x80000
      80:	00100613          	li	a2,1
      84:	0ac5d463          	bge	a1,a2,12c <error>
      88:	00100593          	li	a1,1
      8c:	00200613          	li	a2,2
      90:	08c5de63          	bge	a1,a2,12c <error>
      94:	00100593          	li	a1,1
      98:	00100613          	li	a2,1
      9c:	00c5d463          	bge	a1,a2,a4 <label_b0>
      a0:	09188663          	beq	a7,a7,12c <error>

000000a4 <label_b0>:
      a4:	00200593          	li	a1,2
      a8:	00100613          	li	a2,1
      ac:	00c5d463          	bge	a1,a2,b4 <bltu_bench>
      b0:	07188e63          	beq	a7,a7,12c <error>

000000b4 <bltu_bench>:
      b4:	00500693          	li	a3,5
      b8:	00100593          	li	a1,1
      bc:	80000637          	lui	a2,0x80000
      c0:	00c5e463          	bltu	a1,a2,c8 <label_b1>
      c4:	07188463          	beq	a7,a7,12c <error>

000000c8 <label_b1>:
      c8:	00200593          	li	a1,2
      cc:	00100613          	li	a2,1
      d0:	04c5ee63          	bltu	a1,a2,12c <error>
      d4:	00100593          	li	a1,1
      d8:	00100613          	li	a2,1
      dc:	04c5e863          	bltu	a1,a2,12c <error>
      e0:	00100593          	li	a1,1
      e4:	00200613          	li	a2,2
      e8:	00c5e463          	bltu	a1,a2,f0 <bgeu_bench>
      ec:	05188063          	beq	a7,a7,12c <error>

000000f0 <bgeu_bench>:
      f0:	00600693          	li	a3,6
      f4:	800005b7          	lui	a1,0x80000
      f8:	00100613          	li	a2,1
      fc:	00c5f463          	bgeu	a1,a2,104 <label_b2>
     100:	03188663          	beq	a7,a7,12c <error>

00000104 <label_b2>:
     104:	00100593          	li	a1,1
     108:	00200613          	li	a2,2
     10c:	02c5f063          	bgeu	a1,a2,12c <error>
     110:	00100593          	li	a1,1
     114:	00100613          	li	a2,1
     118:	00c5f463          	bgeu	a1,a2,120 <label_b3>
     11c:	01188863          	beq	a7,a7,12c <error>

00000120 <label_b3>:
     120:	00200593          	li	a1,2
     124:	00100613          	li	a2,1
     128:	00c5f463          	bgeu	a1,a2,130 <label_b4>

0000012c <error>:
     12c:	00100513          	li	a0,1

00000130 <label_b4>:
     130:	00700693          	li	a3,7
     134:	00000013          	nop
     138:	02900593          	li	a1,41
     13c:	07500693          	li	a3,117
     140:	04c58713          	addi	a4,a1,76 # 8000004c <label_j2+0x7ffff9fc>
     144:	00e6c533          	xor	a0,a3,a4
     148:	03f00593          	li	a1,63
     14c:	09100693          	li	a3,145
     150:	05258713          	addi	a4,a1,82
     154:	00e6c533          	xor	a0,a3,a4
     158:	10000593          	li	a1,256
     15c:	10000693          	li	a3,256
     160:	00058713          	mv	a4,a1
     164:	00e6c533          	xor	a0,a3,a4
     168:	fff00593          	li	a1,-1
     16c:	00000693          	li	a3,0
     170:	00158713          	addi	a4,a1,1
     174:	00e6c533          	xor	a0,a3,a4
     178:	fff00593          	li	a1,-1
     17c:	00100693          	li	a3,1
     180:	00258713          	addi	a4,a1,2
     184:	00e6c533          	xor	a0,a3,a4
     188:	fff00593          	li	a1,-1
     18c:	ffe00693          	li	a3,-2
     190:	fff58713          	addi	a4,a1,-1
     194:	00e6c533          	xor	a0,a3,a4
     198:	00200593          	li	a1,2
     19c:	00000693          	li	a3,0
     1a0:	0015a713          	slti	a4,a1,1
     1a4:	00e6c533          	xor	a0,a3,a4
     1a8:	00100593          	li	a1,1
     1ac:	00100693          	li	a3,1
     1b0:	0025a713          	slti	a4,a1,2
     1b4:	00e6c533          	xor	a0,a3,a4
     1b8:	36300593          	li	a1,867
     1bc:	00000693          	li	a3,0
     1c0:	2755a713          	slti	a4,a1,629
     1c4:	00e6c533          	xor	a0,a3,a4
     1c8:	26400593          	li	a1,612
     1cc:	00100693          	li	a3,1
     1d0:	7845a713          	slti	a4,a1,1924
     1d4:	00e6c533          	xor	a0,a3,a4
     1d8:	fff00593          	li	a1,-1
     1dc:	00100693          	li	a3,1
     1e0:	0015a713          	slti	a4,a1,1
     1e4:	00e6c533          	xor	a0,a3,a4
     1e8:	fff00593          	li	a1,-1
     1ec:	00000693          	li	a3,0
     1f0:	ffe5a713          	slti	a4,a1,-2
     1f4:	00e6c533          	xor	a0,a3,a4
     1f8:	00200593          	li	a1,2
     1fc:	00000693          	li	a3,0
     200:	0015b713          	seqz	a4,a1
     204:	00e6c533          	xor	a0,a3,a4
     208:	00100593          	li	a1,1
     20c:	00100693          	li	a3,1
     210:	0025b713          	sltiu	a4,a1,2
     214:	00e6c533          	xor	a0,a3,a4
     218:	36300593          	li	a1,867
     21c:	00000693          	li	a3,0
     220:	2755b713          	sltiu	a4,a1,629
     224:	00e6c533          	xor	a0,a3,a4
     228:	26400593          	li	a1,612
     22c:	00100693          	li	a3,1
     230:	7845b713          	sltiu	a4,a1,1924
     234:	00e6c533          	xor	a0,a3,a4
     238:	fff00593          	li	a1,-1
     23c:	00000693          	li	a3,0
     240:	0015b713          	seqz	a4,a1
     244:	00e6c533          	xor	a0,a3,a4
     248:	fff00593          	li	a1,-1
     24c:	00000693          	li	a3,0
     250:	ffe5b713          	sltiu	a4,a1,-2
     254:	00e6c533          	xor	a0,a3,a4
     258:	00000593          	li	a1,0
     25c:	00100693          	li	a3,1
     260:	0015c713          	xori	a4,a1,1
     264:	00e6c533          	xor	a0,a3,a4
     268:	00100593          	li	a1,1
     26c:	00200693          	li	a3,2
     270:	0035c713          	xori	a4,a1,3
     274:	00e6c533          	xor	a0,a3,a4
     278:	37800593          	li	a1,888
     27c:	00000693          	li	a3,0
     280:	3785c713          	xori	a4,a1,888
     284:	00e6c533          	xor	a0,a3,a4
     288:	28400593          	li	a1,644
     28c:	28400693          	li	a3,644
     290:	0005c713          	xori	a4,a1,0
     294:	00e6c533          	xor	a0,a3,a4
     298:	03300593          	li	a1,51
     29c:	0cc00693          	li	a3,204
     2a0:	0ff5c713          	xori	a4,a1,255
     2a4:	00e6c533          	xor	a0,a3,a4
     2a8:	03300593          	li	a1,51
     2ac:	01200693          	li	a3,18
     2b0:	0215c713          	xori	a4,a1,33
     2b4:	00e6c533          	xor	a0,a3,a4
     2b8:	000105b7          	lui	a1,0x10
     2bc:	f0058593          	addi	a1,a1,-256 # ff00 <label_j2+0xf8b0>
     2c0:	000106b7          	lui	a3,0x10
     2c4:	fff68693          	addi	a3,a3,-1 # ffff <label_j2+0xf9af>
     2c8:	0ff5e713          	ori	a4,a1,255
     2cc:	00e6c533          	xor	a0,a3,a4
     2d0:	0000f5b7          	lui	a1,0xf
     2d4:	0000f6b7          	lui	a3,0xf
     2d8:	0ff68693          	addi	a3,a3,255 # f0ff <label_j2+0xeaaf>
     2dc:	0ff5e713          	ori	a4,a1,255
     2e0:	00e6c533          	xor	a0,a3,a4
     2e4:	04500593          	li	a1,69
     2e8:	04500693          	li	a3,69
     2ec:	0455e713          	ori	a4,a1,69
     2f0:	00e6c533          	xor	a0,a3,a4
     2f4:	03400593          	li	a1,52
     2f8:	03400693          	li	a3,52
     2fc:	0345e713          	ori	a4,a1,52
     300:	00e6c533          	xor	a0,a3,a4
     304:	000015b7          	lui	a1,0x1
     308:	fff58593          	addi	a1,a1,-1 # fff <label_j2+0x9af>
     30c:	000016b7          	lui	a3,0x1
     310:	fff68693          	addi	a3,a3,-1 # fff <label_j2+0x9af>
     314:	1235e713          	ori	a4,a1,291
     318:	00e6c533          	xor	a0,a3,a4
     31c:	00000593          	li	a1,0
     320:	12300693          	li	a3,291
     324:	1235e713          	ori	a4,a1,291
     328:	00e6c533          	xor	a0,a3,a4
     32c:	000105b7          	lui	a1,0x10
     330:	f0058593          	addi	a1,a1,-256 # ff00 <label_j2+0xf8b0>
     334:	00000693          	li	a3,0
     338:	0ff5f713          	zext.b	a4,a1
     33c:	00e6c533          	xor	a0,a3,a4
     340:	000105b7          	lui	a1,0x10
     344:	ff058593          	addi	a1,a1,-16 # fff0 <label_j2+0xf9a0>
     348:	0f000693          	li	a3,240
     34c:	0ff5f713          	zext.b	a4,a1
     350:	00e6c533          	xor	a0,a3,a4
     354:	07400593          	li	a1,116
     358:	07400693          	li	a3,116
     35c:	0745f713          	andi	a4,a1,116
     360:	00e6c533          	xor	a0,a3,a4
     364:	01400593          	li	a1,20
     368:	01400693          	li	a3,20
     36c:	0145f713          	andi	a4,a1,20
     370:	00e6c533          	xor	a0,a3,a4
     374:	000015b7          	lui	a1,0x1
     378:	fff58593          	addi	a1,a1,-1 # fff <label_j2+0x9af>
     37c:	12300693          	li	a3,291
     380:	1235f713          	andi	a4,a1,291
     384:	00e6c533          	xor	a0,a3,a4
     388:	00000593          	li	a1,0
     38c:	00000693          	li	a3,0
     390:	1235f713          	andi	a4,a1,291
     394:	00e6c533          	xor	a0,a3,a4
     398:	00100593          	li	a1,1
     39c:	00200693          	li	a3,2
     3a0:	00159713          	slli	a4,a1,0x1
     3a4:	00e6c533          	xor	a0,a3,a4
     3a8:	000015b7          	lui	a1,0x1
     3ac:	23458593          	addi	a1,a1,564 # 1234 <label_j2+0xbe4>
     3b0:	000126b7          	lui	a3,0x12
     3b4:	34068693          	addi	a3,a3,832 # 12340 <label_j2+0x11cf0>
     3b8:	00459713          	slli	a4,a1,0x4
     3bc:	00e6c533          	xor	a0,a3,a4
     3c0:	fff00593          	li	a1,-1
     3c4:	ffc00693          	li	a3,-4
     3c8:	00259713          	slli	a4,a1,0x2
     3cc:	00e6c533          	xor	a0,a3,a4
     3d0:	111115b7          	lui	a1,0x11111
     3d4:	11158593          	addi	a1,a1,273 # 11111111 <label_j2+0x11110ac1>
     3d8:	800006b7          	lui	a3,0x80000
     3dc:	01f59713          	slli	a4,a1,0x1f
     3e0:	00e6c533          	xor	a0,a3,a4
     3e4:	111115b7          	lui	a1,0x11111
     3e8:	11158593          	addi	a1,a1,273 # 11111111 <label_j2+0x11110ac1>
     3ec:	800006b7          	lui	a3,0x80000
     3f0:	01f59713          	slli	a4,a1,0x1f
     3f4:	00e6c533          	xor	a0,a3,a4
     3f8:	800005b7          	lui	a1,0x80000
     3fc:	00000693          	li	a3,0
     400:	00159713          	slli	a4,a1,0x1
     404:	00e6c533          	xor	a0,a3,a4
     408:	00200593          	li	a1,2
     40c:	00100693          	li	a3,1
     410:	0015d713          	srli	a4,a1,0x1
     414:	00e6c533          	xor	a0,a3,a4
     418:	000125b7          	lui	a1,0x12
     41c:	34058593          	addi	a1,a1,832 # 12340 <label_j2+0x11cf0>
     420:	000016b7          	lui	a3,0x1
     424:	23468693          	addi	a3,a3,564 # 1234 <label_j2+0xbe4>
     428:	0045d713          	srli	a4,a1,0x4
     42c:	00e6c533          	xor	a0,a3,a4
     430:	fff00593          	li	a1,-1
     434:	100006b7          	lui	a3,0x10000
     438:	fff68693          	addi	a3,a3,-1 # fffffff <label_j2+0xffff9af>
     43c:	0045d713          	srli	a4,a1,0x4
     440:	00e6c533          	xor	a0,a3,a4
     444:	888895b7          	lui	a1,0x88889
     448:	88858593          	addi	a1,a1,-1912 # 88888888 <label_j2+0x88888238>
     44c:	00100693          	li	a3,1
     450:	01f5d713          	srli	a4,a1,0x1f
     454:	00e6c533          	xor	a0,a3,a4
     458:	888895b7          	lui	a1,0x88889
     45c:	88858593          	addi	a1,a1,-1912 # 88888888 <label_j2+0x88888238>
     460:	00100693          	li	a3,1
     464:	01f5d713          	srli	a4,a1,0x1f
     468:	00e6c533          	xor	a0,a3,a4
     46c:	00100593          	li	a1,1
     470:	00000693          	li	a3,0
     474:	0015d713          	srli	a4,a1,0x1
     478:	00e6c533          	xor	a0,a3,a4
     47c:	00200593          	li	a1,2
     480:	00100693          	li	a3,1
     484:	4015d713          	srai	a4,a1,0x1
     488:	00e6c533          	xor	a0,a3,a4
     48c:	000125b7          	lui	a1,0x12
     490:	34058593          	addi	a1,a1,832 # 12340 <label_j2+0x11cf0>
     494:	000016b7          	lui	a3,0x1
     498:	23468693          	addi	a3,a3,564 # 1234 <label_j2+0xbe4>
     49c:	4045d713          	srai	a4,a1,0x4
     4a0:	00e6c533          	xor	a0,a3,a4
     4a4:	fff00593          	li	a1,-1
     4a8:	fff00693          	li	a3,-1
     4ac:	4045d713          	srai	a4,a1,0x4
     4b0:	00e6c533          	xor	a0,a3,a4
     4b4:	888895b7          	lui	a1,0x88889
     4b8:	88858593          	addi	a1,a1,-1912 # 88888888 <label_j2+0x88888238>
     4bc:	fff00693          	li	a3,-1
     4c0:	41f5d713          	srai	a4,a1,0x1f
     4c4:	00e6c533          	xor	a0,a3,a4
     4c8:	888895b7          	lui	a1,0x88889
     4cc:	88858593          	addi	a1,a1,-1912 # 88888888 <label_j2+0x88888238>
     4d0:	fff00693          	li	a3,-1
     4d4:	41f5d713          	srai	a4,a1,0x1f
     4d8:	00e6c533          	xor	a0,a3,a4
     4dc:	00100593          	li	a1,1
     4e0:	00000693          	li	a3,0
     4e4:	4015d713          	srai	a4,a1,0x1
     4e8:	00e6c533          	xor	a0,a3,a4
     4ec:	00000597          	auipc	a1,0x0
     4f0:	00c58667          	jalr	a2,12(a1) # 4f8 <label_b4+0x3c8>
     4f4:	00100513          	li	a0,1
     4f8:	00858593          	addi	a1,a1,8
     4fc:	00c5c533          	xor	a0,a1,a2
     500:	00000597          	auipc	a1,0x0
     504:	01458667          	jalr	a2,20(a1) # 514 <label_b4+0x3e4>
     508:	00100513          	li	a0,1
     50c:	00100513          	li	a0,1
     510:	00100513          	li	a0,1
     514:	00858593          	addi	a1,a1,8
     518:	00c5c533          	xor	a0,a1,a2
     51c:	01000593          	li	a1,16
     520:	81238637          	lui	a2,0x81238
     524:	45660613          	addi	a2,a2,1110 # 81238456 <label_j2+0x81237e06>
     528:	00c5a023          	sw	a2,0(a1)
     52c:	0005a683          	lw	a3,0(a1)
     530:	00d64533          	xor	a0,a2,a3
     534:	0015a683          	lw	a3,1(a1)
     538:	00d64533          	xor	a0,a2,a3
     53c:	0025a683          	lw	a3,2(a1)
     540:	00d64533          	xor	a0,a2,a3
     544:	0035a683          	lw	a3,3(a1)
     548:	00d64533          	xor	a0,a2,a3
     54c:	00059683          	lh	a3,0(a1)
     550:	ffff8737          	lui	a4,0xffff8
     554:	45670713          	addi	a4,a4,1110 # ffff8456 <label_j2+0xffff7e06>
     558:	00e6c533          	xor	a0,a3,a4
     55c:	00159683          	lh	a3,1(a1)
     560:	00e6c533          	xor	a0,a3,a4
     564:	00259683          	lh	a3,2(a1)
     568:	ffff8737          	lui	a4,0xffff8
     56c:	12370713          	addi	a4,a4,291 # ffff8123 <label_j2+0xffff7ad3>
     570:	00e6c533          	xor	a0,a3,a4
     574:	00359683          	lh	a3,3(a1)
     578:	00e6c533          	xor	a0,a3,a4
     57c:	0005d683          	lhu	a3,0(a1)
     580:	00008737          	lui	a4,0x8
     584:	45670713          	addi	a4,a4,1110 # 8456 <label_j2+0x7e06>
     588:	00e6c533          	xor	a0,a3,a4
     58c:	0015d683          	lhu	a3,1(a1)
     590:	00e6c533          	xor	a0,a3,a4
     594:	0025d683          	lhu	a3,2(a1)
     598:	00008737          	lui	a4,0x8
     59c:	12370713          	addi	a4,a4,291 # 8123 <label_j2+0x7ad3>
     5a0:	00e6c533          	xor	a0,a3,a4
     5a4:	0035d683          	lhu	a3,3(a1)
     5a8:	00e6c533          	xor	a0,a3,a4
     5ac:	00058683          	lb	a3,0(a1)
     5b0:	05600713          	li	a4,86
     5b4:	00e6c533          	xor	a0,a3,a4
     5b8:	00158683          	lb	a3,1(a1)
     5bc:	fffff737          	lui	a4,0xfffff
     5c0:	40475713          	srai	a4,a4,0x4
     5c4:	08470713          	addi	a4,a4,132 # fffff084 <label_j2+0xffffea34>
     5c8:	00e6c533          	xor	a0,a3,a4
     5cc:	00258683          	lb	a3,2(a1)
     5d0:	02300713          	li	a4,35
     5d4:	00e6c533          	xor	a0,a3,a4
     5d8:	00358683          	lb	a3,3(a1)
     5dc:	fffff737          	lui	a4,0xfffff
     5e0:	40475713          	srai	a4,a4,0x4
     5e4:	08170713          	addi	a4,a4,129 # fffff081 <label_j2+0xffffea31>
     5e8:	00e6c533          	xor	a0,a3,a4
     5ec:	0005c683          	lbu	a3,0(a1)
     5f0:	05600713          	li	a4,86
     5f4:	00e6c533          	xor	a0,a3,a4
     5f8:	0015c683          	lbu	a3,1(a1)
     5fc:	08400713          	li	a4,132
     600:	00e6c533          	xor	a0,a3,a4
     604:	0025c683          	lbu	a3,2(a1)
     608:	02300713          	li	a4,35
     60c:	00e6c533          	xor	a0,a3,a4
     610:	0035c683          	lbu	a3,3(a1)
     614:	08100713          	li	a4,129
     618:	00e6c533          	xor	a0,a3,a4
     61c:	004005ef          	jal	a1,620 <label_j0>

00000620 <label_j0>:
     620:	00000617          	auipc	a2,0x0
     624:	00060613          	mv	a2,a2
     628:	40c58533          	sub	a0,a1,a2
     62c:	008005ef          	jal	a1,634 <label_j1>
     630:	00000013          	nop

00000634 <label_j1>:
     634:	00000617          	auipc	a2,0x0
     638:	00060613          	mv	a2,a2
     63c:	ffc60613          	addi	a2,a2,-4 # 630 <label_j0+0x10>
     640:	40c58533          	sub	a0,a1,a2
     644:	00c005ef          	jal	a1,650 <label_j2>
     648:	00000013          	nop
     64c:	00000013          	nop

00000650 <label_j2>:
     650:	00000617          	auipc	a2,0x0
     654:	00060613          	mv	a2,a2
     658:	ff860613          	addi	a2,a2,-8 # 648 <label_j1+0x14>
     65c:	40c58533          	sub	a0,a1,a2
     660:	02900593          	li	a1,41
     664:	04c00613          	li	a2,76
     668:	07500693          	li	a3,117
     66c:	00c58733          	add	a4,a1,a2
     670:	00e6c533          	xor	a0,a3,a4
     674:	03f00593          	li	a1,63
     678:	05200613          	li	a2,82
     67c:	09100693          	li	a3,145
     680:	00c58733          	add	a4,a1,a2
     684:	00e6c533          	xor	a0,a3,a4
     688:	10000593          	li	a1,256
     68c:	00000613          	li	a2,0
     690:	10000693          	li	a3,256
     694:	00c58733          	add	a4,a1,a2
     698:	00e6c533          	xor	a0,a3,a4
     69c:	fff00593          	li	a1,-1
     6a0:	00100613          	li	a2,1
     6a4:	00000693          	li	a3,0
     6a8:	00c58733          	add	a4,a1,a2
     6ac:	00e6c533          	xor	a0,a3,a4
     6b0:	fff00593          	li	a1,-1
     6b4:	00200613          	li	a2,2
     6b8:	00100693          	li	a3,1
     6bc:	00c58733          	add	a4,a1,a2
     6c0:	00e6c533          	xor	a0,a3,a4
     6c4:	fff00593          	li	a1,-1
     6c8:	fff00613          	li	a2,-1
     6cc:	ffe00693          	li	a3,-2
     6d0:	00c58733          	add	a4,a1,a2
     6d4:	00e6c533          	xor	a0,a3,a4
     6d8:	09300593          	li	a1,147
     6dc:	05500613          	li	a2,85
     6e0:	03e00693          	li	a3,62
     6e4:	40c58733          	sub	a4,a1,a2
     6e8:	00e6c533          	xor	a0,a3,a4
     6ec:	06300593          	li	a1,99
     6f0:	06800613          	li	a2,104
     6f4:	ffb00693          	li	a3,-5
     6f8:	40c58733          	sub	a4,a1,a2
     6fc:	00e6c533          	xor	a0,a3,a4
     700:	10000593          	li	a1,256
     704:	00000613          	li	a2,0
     708:	10000693          	li	a3,256
     70c:	40c58733          	sub	a4,a1,a2
     710:	00e6c533          	xor	a0,a3,a4
     714:	00000593          	li	a1,0
     718:	00100613          	li	a2,1
     71c:	fff00693          	li	a3,-1
     720:	40c58733          	sub	a4,a1,a2
     724:	00e6c533          	xor	a0,a3,a4
     728:	00000593          	li	a1,0
     72c:	00f00613          	li	a2,15
     730:	ff100693          	li	a3,-15
     734:	40c58733          	sub	a4,a1,a2
     738:	00e6c533          	xor	a0,a3,a4
     73c:	000015b7          	lui	a1,0x1
     740:	23458593          	addi	a1,a1,564 # 1234 <label_j2+0xbe4>
     744:	00001637          	lui	a2,0x1
     748:	23460613          	addi	a2,a2,564 # 1234 <label_j2+0xbe4>
     74c:	00000693          	li	a3,0
     750:	40c58733          	sub	a4,a1,a2
     754:	00e6c533          	xor	a0,a3,a4
     758:	00100593          	li	a1,1
     75c:	00100613          	li	a2,1
     760:	00200693          	li	a3,2
     764:	00c59733          	sll	a4,a1,a2
     768:	00e6c533          	xor	a0,a3,a4
     76c:	000015b7          	lui	a1,0x1
     770:	23458593          	addi	a1,a1,564 # 1234 <label_j2+0xbe4>
     774:	00400613          	li	a2,4
     778:	000126b7          	lui	a3,0x12
     77c:	34068693          	addi	a3,a3,832 # 12340 <label_j2+0x11cf0>
     780:	00c59733          	sll	a4,a1,a2
     784:	00e6c533          	xor	a0,a3,a4
     788:	fff00593          	li	a1,-1
     78c:	00200613          	li	a2,2
     790:	ffc00693          	li	a3,-4
     794:	00c59733          	sll	a4,a1,a2
     798:	00e6c533          	xor	a0,a3,a4
     79c:	111115b7          	lui	a1,0x11111
     7a0:	11158593          	addi	a1,a1,273 # 11111111 <label_j2+0x11110ac1>
     7a4:	01f00613          	li	a2,31
     7a8:	800006b7          	lui	a3,0x80000
     7ac:	00c59733          	sll	a4,a1,a2
     7b0:	00e6c533          	xor	a0,a3,a4
     7b4:	111115b7          	lui	a1,0x11111
     7b8:	11158593          	addi	a1,a1,273 # 11111111 <label_j2+0x11110ac1>
     7bc:	00001637          	lui	a2,0x1
     7c0:	f1f60613          	addi	a2,a2,-225 # f1f <label_j2+0x8cf>
     7c4:	800006b7          	lui	a3,0x80000
     7c8:	00c59733          	sll	a4,a1,a2
     7cc:	00e6c533          	xor	a0,a3,a4
     7d0:	800005b7          	lui	a1,0x80000
     7d4:	00100613          	li	a2,1
     7d8:	00000693          	li	a3,0
     7dc:	00c59733          	sll	a4,a1,a2
     7e0:	00e6c533          	xor	a0,a3,a4
     7e4:	00200593          	li	a1,2
     7e8:	00100613          	li	a2,1
     7ec:	00000693          	li	a3,0
     7f0:	00c5a733          	slt	a4,a1,a2
     7f4:	00e6c533          	xor	a0,a3,a4
     7f8:	00100593          	li	a1,1
     7fc:	00200613          	li	a2,2
     800:	00100693          	li	a3,1
     804:	00c5a733          	slt	a4,a1,a2
     808:	00e6c533          	xor	a0,a3,a4
     80c:	36300593          	li	a1,867
     810:	27500613          	li	a2,629
     814:	00000693          	li	a3,0
     818:	00c5a733          	slt	a4,a1,a2
     81c:	00e6c533          	xor	a0,a3,a4
     820:	26400593          	li	a1,612
     824:	78400613          	li	a2,1924
     828:	00100693          	li	a3,1
     82c:	00c5a733          	slt	a4,a1,a2
     830:	00e6c533          	xor	a0,a3,a4
     834:	fff00593          	li	a1,-1
     838:	00100613          	li	a2,1
     83c:	00100693          	li	a3,1
     840:	00c5a733          	slt	a4,a1,a2
     844:	00e6c533          	xor	a0,a3,a4
     848:	fff00593          	li	a1,-1
     84c:	ffe00613          	li	a2,-2
     850:	00000693          	li	a3,0
     854:	00c5a733          	slt	a4,a1,a2
     858:	00e6c533          	xor	a0,a3,a4
     85c:	00200593          	li	a1,2
     860:	00100613          	li	a2,1
     864:	00000693          	li	a3,0
     868:	00c5b733          	sltu	a4,a1,a2
     86c:	00e6c533          	xor	a0,a3,a4
     870:	00100593          	li	a1,1
     874:	00200613          	li	a2,2
     878:	00100693          	li	a3,1
     87c:	00c5b733          	sltu	a4,a1,a2
     880:	00e6c533          	xor	a0,a3,a4
     884:	36300593          	li	a1,867
     888:	27500613          	li	a2,629
     88c:	00000693          	li	a3,0
     890:	00c5b733          	sltu	a4,a1,a2
     894:	00e6c533          	xor	a0,a3,a4
     898:	26400593          	li	a1,612
     89c:	78400613          	li	a2,1924
     8a0:	00100693          	li	a3,1
     8a4:	00c5b733          	sltu	a4,a1,a2
     8a8:	00e6c533          	xor	a0,a3,a4
     8ac:	fff00593          	li	a1,-1
     8b0:	00100613          	li	a2,1
     8b4:	00000693          	li	a3,0
     8b8:	00c5b733          	sltu	a4,a1,a2
     8bc:	00e6c533          	xor	a0,a3,a4
     8c0:	fff00593          	li	a1,-1
     8c4:	ffe00613          	li	a2,-2
     8c8:	00000693          	li	a3,0
     8cc:	00c5b733          	sltu	a4,a1,a2
     8d0:	00e6c533          	xor	a0,a3,a4
     8d4:	00000593          	li	a1,0
     8d8:	00100613          	li	a2,1
     8dc:	00100693          	li	a3,1
     8e0:	00c5c733          	xor	a4,a1,a2
     8e4:	00e6c533          	xor	a0,a3,a4
     8e8:	00100593          	li	a1,1
     8ec:	00300613          	li	a2,3
     8f0:	00200693          	li	a3,2
     8f4:	00c5c733          	xor	a4,a1,a2
     8f8:	00e6c533          	xor	a0,a3,a4
     8fc:	37800593          	li	a1,888
     900:	37800613          	li	a2,888
     904:	00000693          	li	a3,0
     908:	00c5c733          	xor	a4,a1,a2
     90c:	00e6c533          	xor	a0,a3,a4
     910:	28400593          	li	a1,644
     914:	00000613          	li	a2,0
     918:	28400693          	li	a3,644
     91c:	00c5c733          	xor	a4,a1,a2
     920:	00e6c533          	xor	a0,a3,a4
     924:	333335b7          	lui	a1,0x33333
     928:	33358593          	addi	a1,a1,819 # 33333333 <label_j2+0x33332ce3>
     92c:	ccccd637          	lui	a2,0xccccd
     930:	ccc60613          	addi	a2,a2,-820 # cccccccc <label_j2+0xccccc67c>
     934:	fff00693          	li	a3,-1
     938:	00c5c733          	xor	a4,a1,a2
     93c:	00e6c533          	xor	a0,a3,a4
     940:	333335b7          	lui	a1,0x33333
     944:	33358593          	addi	a1,a1,819 # 33333333 <label_j2+0x33332ce3>
     948:	22221637          	lui	a2,0x22221
     94c:	11160613          	addi	a2,a2,273 # 22221111 <label_j2+0x22220ac1>
     950:	111126b7          	lui	a3,0x11112
     954:	22268693          	addi	a3,a3,546 # 11112222 <label_j2+0x11111bd2>
     958:	00c5c733          	xor	a4,a1,a2
     95c:	00e6c533          	xor	a0,a3,a4
     960:	00200593          	li	a1,2
     964:	00100613          	li	a2,1
     968:	00100693          	li	a3,1
     96c:	00c5d733          	srl	a4,a1,a2
     970:	00e6c533          	xor	a0,a3,a4
     974:	000125b7          	lui	a1,0x12
     978:	34058593          	addi	a1,a1,832 # 12340 <label_j2+0x11cf0>
     97c:	00400613          	li	a2,4
     980:	000016b7          	lui	a3,0x1
     984:	23468693          	addi	a3,a3,564 # 1234 <label_j2+0xbe4>
     988:	00c5d733          	srl	a4,a1,a2
     98c:	00e6c533          	xor	a0,a3,a4
     990:	fff00593          	li	a1,-1
     994:	00400613          	li	a2,4
     998:	100006b7          	lui	a3,0x10000
     99c:	fff68693          	addi	a3,a3,-1 # fffffff <label_j2+0xffff9af>
     9a0:	00c5d733          	srl	a4,a1,a2
     9a4:	00e6c533          	xor	a0,a3,a4
     9a8:	888895b7          	lui	a1,0x88889
     9ac:	88858593          	addi	a1,a1,-1912 # 88888888 <label_j2+0x88888238>
     9b0:	01f00613          	li	a2,31
     9b4:	00100693          	li	a3,1
     9b8:	00c5d733          	srl	a4,a1,a2
     9bc:	00e6c533          	xor	a0,a3,a4
     9c0:	888895b7          	lui	a1,0x88889
     9c4:	88858593          	addi	a1,a1,-1912 # 88888888 <label_j2+0x88888238>
     9c8:	00001637          	lui	a2,0x1
     9cc:	f1f60613          	addi	a2,a2,-225 # f1f <label_j2+0x8cf>
     9d0:	00100693          	li	a3,1
     9d4:	00c5d733          	srl	a4,a1,a2
     9d8:	00e6c533          	xor	a0,a3,a4
     9dc:	00100593          	li	a1,1
     9e0:	00100613          	li	a2,1
     9e4:	00000693          	li	a3,0
     9e8:	00c5d733          	srl	a4,a1,a2
     9ec:	00e6c533          	xor	a0,a3,a4
     9f0:	00200593          	li	a1,2
     9f4:	00100613          	li	a2,1
     9f8:	00100693          	li	a3,1
     9fc:	40c5d733          	sra	a4,a1,a2
     a00:	00e6c533          	xor	a0,a3,a4
     a04:	000125b7          	lui	a1,0x12
     a08:	34058593          	addi	a1,a1,832 # 12340 <label_j2+0x11cf0>
     a0c:	00400613          	li	a2,4
     a10:	000016b7          	lui	a3,0x1
     a14:	23468693          	addi	a3,a3,564 # 1234 <label_j2+0xbe4>
     a18:	40c5d733          	sra	a4,a1,a2
     a1c:	00e6c533          	xor	a0,a3,a4
     a20:	fff00593          	li	a1,-1
     a24:	00400613          	li	a2,4
     a28:	fff00693          	li	a3,-1
     a2c:	40c5d733          	sra	a4,a1,a2
     a30:	00e6c533          	xor	a0,a3,a4
     a34:	888895b7          	lui	a1,0x88889
     a38:	88858593          	addi	a1,a1,-1912 # 88888888 <label_j2+0x88888238>
     a3c:	01f00613          	li	a2,31
     a40:	fff00693          	li	a3,-1
     a44:	40c5d733          	sra	a4,a1,a2
     a48:	00e6c533          	xor	a0,a3,a4
     a4c:	888895b7          	lui	a1,0x88889
     a50:	88858593          	addi	a1,a1,-1912 # 88888888 <label_j2+0x88888238>
     a54:	00001637          	lui	a2,0x1
     a58:	f1f60613          	addi	a2,a2,-225 # f1f <label_j2+0x8cf>
     a5c:	fff00693          	li	a3,-1
     a60:	40c5d733          	sra	a4,a1,a2
     a64:	00e6c533          	xor	a0,a3,a4
     a68:	00100593          	li	a1,1
     a6c:	00100613          	li	a2,1
     a70:	00000693          	li	a3,0
     a74:	40c5d733          	sra	a4,a1,a2
     a78:	00e6c533          	xor	a0,a3,a4
     a7c:	000105b7          	lui	a1,0x10
     a80:	f0058593          	addi	a1,a1,-256 # ff00 <label_j2+0xf8b0>
     a84:	0ff00613          	li	a2,255
     a88:	000106b7          	lui	a3,0x10
     a8c:	fff68693          	addi	a3,a3,-1 # ffff <label_j2+0xf9af>
     a90:	00c5e733          	or	a4,a1,a2
     a94:	00e6c533          	xor	a0,a3,a4
     a98:	0000f5b7          	lui	a1,0xf
     a9c:	0ff00613          	li	a2,255
     aa0:	0000f6b7          	lui	a3,0xf
     aa4:	0ff68693          	addi	a3,a3,255 # f0ff <label_j2+0xeaaf>
     aa8:	00c5e733          	or	a4,a1,a2
     aac:	00e6c533          	xor	a0,a3,a4
     ab0:	64500593          	li	a1,1605
     ab4:	64500613          	li	a2,1605
     ab8:	64500693          	li	a3,1605
     abc:	00c5e733          	or	a4,a1,a2
     ac0:	00e6c533          	xor	a0,a3,a4
     ac4:	73400593          	li	a1,1844
     ac8:	73400613          	li	a2,1844
     acc:	73400693          	li	a3,1844
     ad0:	00c5e733          	or	a4,a1,a2
     ad4:	00e6c533          	xor	a0,a3,a4
     ad8:	fff00593          	li	a1,-1
     adc:	12345637          	lui	a2,0x12345
     ae0:	67860613          	addi	a2,a2,1656 # 12345678 <label_j2+0x12345028>
     ae4:	fff00693          	li	a3,-1
     ae8:	00c5e733          	or	a4,a1,a2
     aec:	00e6c533          	xor	a0,a3,a4
     af0:	00000593          	li	a1,0
     af4:	12345637          	lui	a2,0x12345
     af8:	67860613          	addi	a2,a2,1656 # 12345678 <label_j2+0x12345028>
     afc:	123456b7          	lui	a3,0x12345
     b00:	67868693          	addi	a3,a3,1656 # 12345678 <label_j2+0x12345028>
     b04:	00c5e733          	or	a4,a1,a2
     b08:	00e6c533          	xor	a0,a3,a4
     b0c:	000105b7          	lui	a1,0x10
     b10:	f0058593          	addi	a1,a1,-256 # ff00 <label_j2+0xf8b0>
     b14:	0ff00613          	li	a2,255
     b18:	00000693          	li	a3,0
     b1c:	00c5f733          	and	a4,a1,a2
     b20:	00e6c533          	xor	a0,a3,a4
     b24:	000105b7          	lui	a1,0x10
     b28:	ff058593          	addi	a1,a1,-16 # fff0 <label_j2+0xf9a0>
     b2c:	0ff00613          	li	a2,255
     b30:	0f000693          	li	a3,240
     b34:	00c5f733          	and	a4,a1,a2
     b38:	00e6c533          	xor	a0,a3,a4
     b3c:	47400593          	li	a1,1140
     b40:	47400613          	li	a2,1140
     b44:	47400693          	li	a3,1140
     b48:	00c5f733          	and	a4,a1,a2
     b4c:	00e6c533          	xor	a0,a3,a4
     b50:	14100593          	li	a1,321
     b54:	14100613          	li	a2,321
     b58:	14100693          	li	a3,321
     b5c:	00c5f733          	and	a4,a1,a2
     b60:	00e6c533          	xor	a0,a3,a4
     b64:	fff00593          	li	a1,-1
     b68:	12345637          	lui	a2,0x12345
     b6c:	67860613          	addi	a2,a2,1656 # 12345678 <label_j2+0x12345028>
     b70:	123456b7          	lui	a3,0x12345
     b74:	67868693          	addi	a3,a3,1656 # 12345678 <label_j2+0x12345028>
     b78:	00c5f733          	and	a4,a1,a2
     b7c:	00e6c533          	xor	a0,a3,a4
     b80:	00000593          	li	a1,0
     b84:	12345637          	lui	a2,0x12345
     b88:	67860613          	addi	a2,a2,1656 # 12345678 <label_j2+0x12345028>
     b8c:	00000693          	li	a3,0
     b90:	00c5f733          	and	a4,a1,a2
     b94:	00e6c533          	xor	a0,a3,a4
     b98:	000085b7          	lui	a1,0x8
     b9c:	e0058593          	addi	a1,a1,-512 # 7e00 <label_j2+0x77b0>
     ba0:	b6db7637          	lui	a2,0xb6db7
     ba4:	db760613          	addi	a2,a2,-585 # b6db6db7 <label_j2+0xb6db6767>
     ba8:	000016b7          	lui	a3,0x1
     bac:	20068693          	addi	a3,a3,512 # 1200 <label_j2+0xbb0>
     bb0:	02c58733          	mul	a4,a1,a2
     bb4:	00e6c533          	xor	a0,a3,a4
     bb8:	000085b7          	lui	a1,0x8
     bbc:	fc058593          	addi	a1,a1,-64 # 7fc0 <label_j2+0x7970>
     bc0:	b6db7637          	lui	a2,0xb6db7
     bc4:	db760613          	addi	a2,a2,-585 # b6db6db7 <label_j2+0xb6db6767>
     bc8:	000016b7          	lui	a3,0x1
     bcc:	24068693          	addi	a3,a3,576 # 1240 <label_j2+0xbf0>
     bd0:	02c58733          	mul	a4,a1,a2
     bd4:	00e6c533          	xor	a0,a3,a4
     bd8:	00000593          	li	a1,0
     bdc:	00000613          	li	a2,0
     be0:	00000693          	li	a3,0
     be4:	02c58733          	mul	a4,a1,a2
     be8:	00e6c533          	xor	a0,a3,a4
     bec:	00100593          	li	a1,1
     bf0:	00100613          	li	a2,1
     bf4:	00100693          	li	a3,1
     bf8:	02c58733          	mul	a4,a1,a2
     bfc:	00e6c533          	xor	a0,a3,a4
     c00:	00300593          	li	a1,3
     c04:	00700613          	li	a2,7
     c08:	01500693          	li	a3,21
     c0c:	02c58733          	mul	a4,a1,a2
     c10:	00e6c533          	xor	a0,a3,a4
     c14:	00000593          	li	a1,0
     c18:	ffff8637          	lui	a2,0xffff8
     c1c:	00000693          	li	a3,0
     c20:	02c58733          	mul	a4,a1,a2
     c24:	00e6c533          	xor	a0,a3,a4
     c28:	800005b7          	lui	a1,0x80000
     c2c:	00000613          	li	a2,0
     c30:	00000693          	li	a3,0
     c34:	02c58733          	mul	a4,a1,a2
     c38:	00e6c533          	xor	a0,a3,a4
     c3c:	800005b7          	lui	a1,0x80000
     c40:	ffff8637          	lui	a2,0xffff8
     c44:	00000693          	li	a3,0
     c48:	02c58733          	mul	a4,a1,a2
     c4c:	00e6c533          	xor	a0,a3,a4
     c50:	aaaab5b7          	lui	a1,0xaaaab
     c54:	aab58593          	addi	a1,a1,-1365 # aaaaaaab <label_j2+0xaaaaa45b>
     c58:	00030637          	lui	a2,0x30
     c5c:	e7d60613          	addi	a2,a2,-387 # 2fe7d <label_j2+0x2f82d>
     c60:	000106b7          	lui	a3,0x10
     c64:	f7f68693          	addi	a3,a3,-129 # ff7f <label_j2+0xf92f>
     c68:	02c58733          	mul	a4,a1,a2
     c6c:	00e6c533          	xor	a0,a3,a4
     c70:	000305b7          	lui	a1,0x30
     c74:	e7d58593          	addi	a1,a1,-387 # 2fe7d <label_j2+0x2f82d>
     c78:	aaaab637          	lui	a2,0xaaaab
     c7c:	aab60613          	addi	a2,a2,-1365 # aaaaaaab <label_j2+0xaaaaa45b>
     c80:	000106b7          	lui	a3,0x10
     c84:	f7f68693          	addi	a3,a3,-129 # ff7f <label_j2+0xf92f>
     c88:	02c58733          	mul	a4,a1,a2
     c8c:	00e6c533          	xor	a0,a3,a4
     c90:	ff0005b7          	lui	a1,0xff000
     c94:	ff000637          	lui	a2,0xff000
     c98:	00000693          	li	a3,0
     c9c:	02c58733          	mul	a4,a1,a2
     ca0:	00e6c533          	xor	a0,a3,a4
     ca4:	fff00593          	li	a1,-1
     ca8:	fff00613          	li	a2,-1
     cac:	00100693          	li	a3,1
     cb0:	02c58733          	mul	a4,a1,a2
     cb4:	00e6c533          	xor	a0,a3,a4
     cb8:	fff00593          	li	a1,-1
     cbc:	00100613          	li	a2,1
     cc0:	fff00693          	li	a3,-1
     cc4:	02c58733          	mul	a4,a1,a2
     cc8:	00e6c533          	xor	a0,a3,a4
     ccc:	00100593          	li	a1,1
     cd0:	fff00613          	li	a2,-1
     cd4:	fff00693          	li	a3,-1
     cd8:	02c58733          	mul	a4,a1,a2
     cdc:	00e6c533          	xor	a0,a3,a4
     ce0:	00000593          	li	a1,0
     ce4:	00000613          	li	a2,0
     ce8:	00000693          	li	a3,0
     cec:	02c59733          	mulh	a4,a1,a2
     cf0:	00e6c533          	xor	a0,a3,a4
     cf4:	00100593          	li	a1,1
     cf8:	00100613          	li	a2,1
     cfc:	00000693          	li	a3,0
     d00:	02c59733          	mulh	a4,a1,a2
     d04:	00e6c533          	xor	a0,a3,a4
     d08:	00300593          	li	a1,3
     d0c:	00700613          	li	a2,7
     d10:	00000693          	li	a3,0
     d14:	02c59733          	mulh	a4,a1,a2
     d18:	00e6c533          	xor	a0,a3,a4
     d1c:	00000593          	li	a1,0
     d20:	ffff8637          	lui	a2,0xffff8
     d24:	00000693          	li	a3,0
     d28:	02c59733          	mulh	a4,a1,a2
     d2c:	00e6c533          	xor	a0,a3,a4
     d30:	800005b7          	lui	a1,0x80000
     d34:	00000613          	li	a2,0
     d38:	00000693          	li	a3,0
     d3c:	02c59733          	mulh	a4,a1,a2
     d40:	00e6c533          	xor	a0,a3,a4
     d44:	400005b7          	lui	a1,0x40000
     d48:	00400613          	li	a2,4
     d4c:	00100693          	li	a3,1
     d50:	02c59733          	mulh	a4,a1,a2
     d54:	00e6c533          	xor	a0,a3,a4
     d58:	aaaab5b7          	lui	a1,0xaaaab
     d5c:	aab58593          	addi	a1,a1,-1365 # aaaaaaab <label_j2+0xaaaaa45b>
     d60:	00030637          	lui	a2,0x30
     d64:	e7d60613          	addi	a2,a2,-387 # 2fe7d <label_j2+0x2f82d>
     d68:	ffff06b7          	lui	a3,0xffff0
     d6c:	08168693          	addi	a3,a3,129 # ffff0081 <label_j2+0xfffefa31>
     d70:	02c59733          	mulh	a4,a1,a2
     d74:	00e6c533          	xor	a0,a3,a4
     d78:	000305b7          	lui	a1,0x30
     d7c:	e7d58593          	addi	a1,a1,-387 # 2fe7d <label_j2+0x2f82d>
     d80:	aaaab637          	lui	a2,0xaaaab
     d84:	aab60613          	addi	a2,a2,-1365 # aaaaaaab <label_j2+0xaaaaa45b>
     d88:	ffff06b7          	lui	a3,0xffff0
     d8c:	08168693          	addi	a3,a3,129 # ffff0081 <label_j2+0xfffefa31>
     d90:	02c59733          	mulh	a4,a1,a2
     d94:	00e6c533          	xor	a0,a3,a4
     d98:	ff0005b7          	lui	a1,0xff000
     d9c:	ff000637          	lui	a2,0xff000
     da0:	000106b7          	lui	a3,0x10
     da4:	02c59733          	mulh	a4,a1,a2
     da8:	00e6c533          	xor	a0,a3,a4
     dac:	fff00593          	li	a1,-1
     db0:	fff00613          	li	a2,-1
     db4:	00000693          	li	a3,0
     db8:	02c59733          	mulh	a4,a1,a2
     dbc:	00e6c533          	xor	a0,a3,a4
     dc0:	fff00593          	li	a1,-1
     dc4:	00100613          	li	a2,1
     dc8:	fff00693          	li	a3,-1
     dcc:	02c59733          	mulh	a4,a1,a2
     dd0:	00e6c533          	xor	a0,a3,a4
     dd4:	00100593          	li	a1,1
     dd8:	fff00613          	li	a2,-1
     ddc:	fff00693          	li	a3,-1
     de0:	02c59733          	mulh	a4,a1,a2
     de4:	00e6c533          	xor	a0,a3,a4
     de8:	00000593          	li	a1,0
     dec:	00000613          	li	a2,0
     df0:	00000693          	li	a3,0
     df4:	02c5a733          	mulhsu	a4,a1,a2
     df8:	00e6c533          	xor	a0,a3,a4
     dfc:	00100593          	li	a1,1
     e00:	00100613          	li	a2,1
     e04:	00000693          	li	a3,0
     e08:	02c5a733          	mulhsu	a4,a1,a2
     e0c:	00e6c533          	xor	a0,a3,a4
     e10:	00300593          	li	a1,3
     e14:	00700613          	li	a2,7
     e18:	00000693          	li	a3,0
     e1c:	02c5a733          	mulhsu	a4,a1,a2
     e20:	00e6c533          	xor	a0,a3,a4
     e24:	00000593          	li	a1,0
     e28:	ffff8637          	lui	a2,0xffff8
     e2c:	00000693          	li	a3,0
     e30:	02c5a733          	mulhsu	a4,a1,a2
     e34:	00e6c533          	xor	a0,a3,a4
     e38:	800005b7          	lui	a1,0x80000
     e3c:	00000613          	li	a2,0
     e40:	00000693          	li	a3,0
     e44:	02c5a733          	mulhsu	a4,a1,a2
     e48:	00e6c533          	xor	a0,a3,a4
     e4c:	800005b7          	lui	a1,0x80000
     e50:	ffff8637          	lui	a2,0xffff8
     e54:	800046b7          	lui	a3,0x80004
     e58:	02c5a733          	mulhsu	a4,a1,a2
     e5c:	00e6c533          	xor	a0,a3,a4
     e60:	aaaab5b7          	lui	a1,0xaaaab
     e64:	aab58593          	addi	a1,a1,-1365 # aaaaaaab <label_j2+0xaaaaa45b>
     e68:	00030637          	lui	a2,0x30
     e6c:	e7d60613          	addi	a2,a2,-387 # 2fe7d <label_j2+0x2f82d>
     e70:	ffff06b7          	lui	a3,0xffff0
     e74:	08168693          	addi	a3,a3,129 # ffff0081 <label_j2+0xfffefa31>
     e78:	02c5a733          	mulhsu	a4,a1,a2
     e7c:	00e6c533          	xor	a0,a3,a4
     e80:	000305b7          	lui	a1,0x30
     e84:	e7d58593          	addi	a1,a1,-387 # 2fe7d <label_j2+0x2f82d>
     e88:	aaaab637          	lui	a2,0xaaaab
     e8c:	aab60613          	addi	a2,a2,-1365 # aaaaaaab <label_j2+0xaaaaa45b>
     e90:	000206b7          	lui	a3,0x20
     e94:	efe68693          	addi	a3,a3,-258 # 1fefe <label_j2+0x1f8ae>
     e98:	02c5a733          	mulhsu	a4,a1,a2
     e9c:	00e6c533          	xor	a0,a3,a4
     ea0:	ff0005b7          	lui	a1,0xff000
     ea4:	ff000637          	lui	a2,0xff000
     ea8:	ff0106b7          	lui	a3,0xff010
     eac:	02c5a733          	mulhsu	a4,a1,a2
     eb0:	00e6c533          	xor	a0,a3,a4
     eb4:	fff00593          	li	a1,-1
     eb8:	fff00613          	li	a2,-1
     ebc:	fff00693          	li	a3,-1
     ec0:	02c5a733          	mulhsu	a4,a1,a2
     ec4:	00e6c533          	xor	a0,a3,a4
     ec8:	fff00593          	li	a1,-1
     ecc:	00100613          	li	a2,1
     ed0:	fff00693          	li	a3,-1
     ed4:	02c5a733          	mulhsu	a4,a1,a2
     ed8:	00e6c533          	xor	a0,a3,a4
     edc:	00100593          	li	a1,1
     ee0:	fff00613          	li	a2,-1
     ee4:	00000693          	li	a3,0
     ee8:	02c5a733          	mulhsu	a4,a1,a2
     eec:	00e6c533          	xor	a0,a3,a4
     ef0:	00000593          	li	a1,0
     ef4:	00000613          	li	a2,0
     ef8:	00000693          	li	a3,0
     efc:	02c5b733          	mulhu	a4,a1,a2
     f00:	00e6c533          	xor	a0,a3,a4
     f04:	00100593          	li	a1,1
     f08:	00100613          	li	a2,1
     f0c:	00000693          	li	a3,0
     f10:	02c5b733          	mulhu	a4,a1,a2
     f14:	00e6c533          	xor	a0,a3,a4
     f18:	00300593          	li	a1,3
     f1c:	00700613          	li	a2,7
     f20:	00000693          	li	a3,0
     f24:	02c5b733          	mulhu	a4,a1,a2
     f28:	00e6c533          	xor	a0,a3,a4
     f2c:	00000593          	li	a1,0
     f30:	ffff8637          	lui	a2,0xffff8
     f34:	00000693          	li	a3,0
     f38:	02c5b733          	mulhu	a4,a1,a2
     f3c:	00e6c533          	xor	a0,a3,a4
     f40:	800005b7          	lui	a1,0x80000
     f44:	00000613          	li	a2,0
     f48:	00000693          	li	a3,0
     f4c:	02c5b733          	mulhu	a4,a1,a2
     f50:	00e6c533          	xor	a0,a3,a4
     f54:	800005b7          	lui	a1,0x80000
     f58:	ffff8637          	lui	a2,0xffff8
     f5c:	7fffc6b7          	lui	a3,0x7fffc
     f60:	02c5b733          	mulhu	a4,a1,a2
     f64:	00e6c533          	xor	a0,a3,a4
     f68:	aaaab5b7          	lui	a1,0xaaaab
     f6c:	aab58593          	addi	a1,a1,-1365 # aaaaaaab <label_j2+0xaaaaa45b>
     f70:	00030637          	lui	a2,0x30
     f74:	e7d60613          	addi	a2,a2,-387 # 2fe7d <label_j2+0x2f82d>
     f78:	000206b7          	lui	a3,0x20
     f7c:	efe68693          	addi	a3,a3,-258 # 1fefe <label_j2+0x1f8ae>
     f80:	02c5b733          	mulhu	a4,a1,a2
     f84:	00e6c533          	xor	a0,a3,a4
     f88:	000305b7          	lui	a1,0x30
     f8c:	e7d58593          	addi	a1,a1,-387 # 2fe7d <label_j2+0x2f82d>
     f90:	aaaab637          	lui	a2,0xaaaab
     f94:	aab60613          	addi	a2,a2,-1365 # aaaaaaab <label_j2+0xaaaaa45b>
     f98:	000206b7          	lui	a3,0x20
     f9c:	efe68693          	addi	a3,a3,-258 # 1fefe <label_j2+0x1f8ae>
     fa0:	02c5b733          	mulhu	a4,a1,a2
     fa4:	00e6c533          	xor	a0,a3,a4
     fa8:	ff0005b7          	lui	a1,0xff000
     fac:	ff000637          	lui	a2,0xff000
     fb0:	fe0106b7          	lui	a3,0xfe010
     fb4:	02c5b733          	mulhu	a4,a1,a2
     fb8:	00e6c533          	xor	a0,a3,a4
     fbc:	fff00593          	li	a1,-1
     fc0:	fff00613          	li	a2,-1
     fc4:	ffe00693          	li	a3,-2
     fc8:	02c5b733          	mulhu	a4,a1,a2
     fcc:	00e6c533          	xor	a0,a3,a4
     fd0:	fff00593          	li	a1,-1
     fd4:	00100613          	li	a2,1
     fd8:	00000693          	li	a3,0
     fdc:	02c5b733          	mulhu	a4,a1,a2
     fe0:	00e6c533          	xor	a0,a3,a4
     fe4:	00100593          	li	a1,1
     fe8:	fff00613          	li	a2,-1
     fec:	00000693          	li	a3,0
     ff0:	02c5b733          	mulhu	a4,a1,a2
     ff4:	00e6c533          	xor	a0,a3,a4
     ff8:	10000593          	li	a1,256
     ffc:	12345637          	lui	a2,0x12345
    1000:	67860613          	addi	a2,a2,1656 # 12345678 <label_j2+0x12345028>
    1004:	00c5a023          	sw	a2,0(a1) # ff000000 <label_j2+0xfefff9b0>
    1008:	0005a683          	lw	a3,0(a1)
    100c:	00d64533          	xor	a0,a2,a3
    1010:	00c5a0a3          	sw	a2,1(a1)
    1014:	0005a683          	lw	a3,0(a1)
    1018:	00d64533          	xor	a0,a2,a3
    101c:	00c5a123          	sw	a2,2(a1)
    1020:	0005a683          	lw	a3,0(a1)
    1024:	00d64533          	xor	a0,a2,a3
    1028:	00c5a1a3          	sw	a2,3(a1)
    102c:	0005a683          	lw	a3,0(a1)
    1030:	00d64533          	xor	a0,a2,a3
    1034:	691a9637          	lui	a2,0x691a9
    1038:	18d60613          	addi	a2,a2,397 # 691a918d <label_j2+0x691a8b3d>
    103c:	00c5a023          	sw	a2,0(a1)
    1040:	0005a683          	lw	a3,0(a1)
    1044:	00d64533          	xor	a0,a2,a3
    1048:	00c5a0a3          	sw	a2,1(a1)
    104c:	0005a683          	lw	a3,0(a1)
    1050:	00d64533          	xor	a0,a2,a3
    1054:	00c5a123          	sw	a2,2(a1)
    1058:	0005a683          	lw	a3,0(a1)
    105c:	00d64533          	xor	a0,a2,a3
    1060:	00c5a1a3          	sw	a2,3(a1)
    1064:	0005a683          	lw	a3,0(a1)
    1068:	00d64533          	xor	a0,a2,a3
    106c:	55555637          	lui	a2,0x55555
    1070:	55560613          	addi	a2,a2,1365 # 55555555 <label_j2+0x55554f05>
    1074:	00c5a023          	sw	a2,0(a1)
    1078:	00002637          	lui	a2,0x2
    107c:	22260613          	addi	a2,a2,546 # 2222 <label_j2+0x1bd2>
    1080:	00c59023          	sh	a2,0(a1)
    1084:	0005a683          	lw	a3,0(a1)
    1088:	55552737          	lui	a4,0x55552
    108c:	22270713          	addi	a4,a4,546 # 55552222 <label_j2+0x55551bd2>
    1090:	00e6c533          	xor	a0,a3,a4
    1094:	00c590a3          	sh	a2,1(a1)
    1098:	0005a683          	lw	a3,0(a1)
    109c:	00e6c533          	xor	a0,a3,a4
    10a0:	11110637          	lui	a2,0x11110
    10a4:	41065613          	srai	a2,a2,0x10
    10a8:	00c59123          	sh	a2,2(a1)
    10ac:	0005a683          	lw	a3,0(a1)
    10b0:	11112737          	lui	a4,0x11112
    10b4:	22270713          	addi	a4,a4,546 # 11112222 <label_j2+0x11111bd2>
    10b8:	00e6c533          	xor	a0,a3,a4
    10bc:	00c591a3          	sh	a2,3(a1)
    10c0:	0005a683          	lw	a3,0(a1)
    10c4:	00e6c533          	xor	a0,a3,a4
    10c8:	00000613          	li	a2,0
    10cc:	00c5a023          	sw	a2,0(a1)
    10d0:	01100613          	li	a2,17
    10d4:	00c58023          	sb	a2,0(a1)
    10d8:	0005a683          	lw	a3,0(a1)
    10dc:	01100713          	li	a4,17
    10e0:	00e6c533          	xor	a0,a3,a4
    10e4:	02200613          	li	a2,34
    10e8:	00c580a3          	sb	a2,1(a1)
    10ec:	0005a683          	lw	a3,0(a1)
    10f0:	00002737          	lui	a4,0x2
    10f4:	21170713          	addi	a4,a4,529 # 2211 <label_j2+0x1bc1>
    10f8:	00e6c533          	xor	a0,a3,a4
    10fc:	03300613          	li	a2,51
    1100:	00c58123          	sb	a2,2(a1)
    1104:	0005a683          	lw	a3,0(a1)
    1108:	00332737          	lui	a4,0x332
    110c:	21170713          	addi	a4,a4,529 # 332211 <label_j2+0x331bc1>
    1110:	00e6c533          	xor	a0,a3,a4
    1114:	04400613          	li	a2,68
    1118:	00c581a3          	sb	a2,3(a1)
    111c:	0005a683          	lw	a3,0(a1)
    1120:	44332737          	lui	a4,0x44332
    1124:	21170713          	addi	a4,a4,529 # 44332211 <label_j2+0x44331bc1>
    1128:	00e6c533          	xor	a0,a3,a4
    112c:	00000597          	auipc	a1,0x0
    1130:	00000617          	auipc	a2,0x0
    1134:	00458593          	addi	a1,a1,4 # 1130 <label_j2+0xae0>
    1138:	00c5c533          	xor	a0,a1,a2
    113c:	00000597          	auipc	a1,0x0
    1140:	00000013          	nop
    1144:	00000617          	auipc	a2,0x0
    1148:	00858593          	addi	a1,a1,8 # 1144 <label_j2+0xaf4>
    114c:	00c5c533          	xor	a0,a1,a2
    1150:	00001597          	auipc	a1,0x1
    1154:	00000617          	auipc	a2,0x0
    1158:	00458593          	addi	a1,a1,4 # 2154 <label_j2+0x1b04>
    115c:	000016b7          	lui	a3,0x1
    1160:	00d60633          	add	a2,a2,a3
    1164:	00c5c533          	xor	a0,a1,a2
    1168:	000015b7          	lui	a1,0x1
    116c:	aaa58593          	addi	a1,a1,-1366 # aaa <label_j2+0x45a>
    1170:	123455b7          	lui	a1,0x12345
    1174:	12300613          	li	a2,291
    1178:	00861613          	slli	a2,a2,0x8
    117c:	04560613          	addi	a2,a2,69 # 1199 <label_j2+0xb49>
    1180:	00c61613          	slli	a2,a2,0xc
    1184:	00c5c533          	xor	a0,a1,a2
